ARM GAS  /tmp/ccC8SZ8s.s 			page 1


   1              		.cpu cortex-m7
   2              		.eabi_attribute 28, 1
   3              		.eabi_attribute 20, 1
   4              		.eabi_attribute 21, 1
   5              		.eabi_attribute 23, 3
   6              		.eabi_attribute 24, 1
   7              		.eabi_attribute 25, 1
   8              		.eabi_attribute 26, 1
   9              		.eabi_attribute 30, 1
  10              		.eabi_attribute 34, 1
  11              		.eabi_attribute 18, 4
  12              		.file	"stm32f7xx_ll_exti.c"
  13              		.text
  14              	.Ltext0:
  15              		.cfi_sections	.debug_frame
  16              		.section	.text.LL_EXTI_DeInit,"ax",%progbits
  17              		.align	1
  18              		.global	LL_EXTI_DeInit
  19              		.syntax unified
  20              		.thumb
  21              		.thumb_func
  22              		.fpu fpv5-d16
  24              	LL_EXTI_DeInit:
  25              	.LFB151:
  26              		.file 1 "Drivers/STM32F7xx_HAL_Driver/Src/stm32f7xx_ll_exti.c"
   1:Drivers/STM32F7xx_HAL_Driver/Src/stm32f7xx_ll_exti.c **** /**
   2:Drivers/STM32F7xx_HAL_Driver/Src/stm32f7xx_ll_exti.c ****   ******************************************************************************
   3:Drivers/STM32F7xx_HAL_Driver/Src/stm32f7xx_ll_exti.c ****   * @file    stm32f7xx_ll_exti.c
   4:Drivers/STM32F7xx_HAL_Driver/Src/stm32f7xx_ll_exti.c ****   * @author  MCD Application Team
   5:Drivers/STM32F7xx_HAL_Driver/Src/stm32f7xx_ll_exti.c ****   * @brief   EXTI LL module driver.
   6:Drivers/STM32F7xx_HAL_Driver/Src/stm32f7xx_ll_exti.c ****   ******************************************************************************
   7:Drivers/STM32F7xx_HAL_Driver/Src/stm32f7xx_ll_exti.c ****   * @attention
   8:Drivers/STM32F7xx_HAL_Driver/Src/stm32f7xx_ll_exti.c ****   *
   9:Drivers/STM32F7xx_HAL_Driver/Src/stm32f7xx_ll_exti.c ****   * <h2><center>&copy; COPYRIGHT(c) 2017 STMicroelectronics</center></h2>
  10:Drivers/STM32F7xx_HAL_Driver/Src/stm32f7xx_ll_exti.c ****   *
  11:Drivers/STM32F7xx_HAL_Driver/Src/stm32f7xx_ll_exti.c ****   * Redistribution and use in source and binary forms, with or without modification,
  12:Drivers/STM32F7xx_HAL_Driver/Src/stm32f7xx_ll_exti.c ****   * are permitted provided that the following conditions are met:
  13:Drivers/STM32F7xx_HAL_Driver/Src/stm32f7xx_ll_exti.c ****   *   1. Redistributions of source code must retain the above copyright notice,
  14:Drivers/STM32F7xx_HAL_Driver/Src/stm32f7xx_ll_exti.c ****   *      this list of conditions and the following disclaimer.
  15:Drivers/STM32F7xx_HAL_Driver/Src/stm32f7xx_ll_exti.c ****   *   2. Redistributions in binary form must reproduce the above copyright notice,
  16:Drivers/STM32F7xx_HAL_Driver/Src/stm32f7xx_ll_exti.c ****   *      this list of conditions and the following disclaimer in the documentation
  17:Drivers/STM32F7xx_HAL_Driver/Src/stm32f7xx_ll_exti.c ****   *      and/or other materials provided with the distribution.
  18:Drivers/STM32F7xx_HAL_Driver/Src/stm32f7xx_ll_exti.c ****   *   3. Neither the name of STMicroelectronics nor the names of its contributors
  19:Drivers/STM32F7xx_HAL_Driver/Src/stm32f7xx_ll_exti.c ****   *      may be used to endorse or promote products derived from this software
  20:Drivers/STM32F7xx_HAL_Driver/Src/stm32f7xx_ll_exti.c ****   *      without specific prior written permission.
  21:Drivers/STM32F7xx_HAL_Driver/Src/stm32f7xx_ll_exti.c ****   *
  22:Drivers/STM32F7xx_HAL_Driver/Src/stm32f7xx_ll_exti.c ****   * THIS SOFTWARE IS PROVIDED BY THE COPYRIGHT HOLDERS AND CONTRIBUTORS "AS IS"
  23:Drivers/STM32F7xx_HAL_Driver/Src/stm32f7xx_ll_exti.c ****   * AND ANY EXPRESS OR IMPLIED WARRANTIES, INCLUDING, BUT NOT LIMITED TO, THE
  24:Drivers/STM32F7xx_HAL_Driver/Src/stm32f7xx_ll_exti.c ****   * IMPLIED WARRANTIES OF MERCHANTABILITY AND FITNESS FOR A PARTICULAR PURPOSE ARE
  25:Drivers/STM32F7xx_HAL_Driver/Src/stm32f7xx_ll_exti.c ****   * DISCLAIMED. IN NO EVENT SHALL THE COPYRIGHT HOLDER OR CONTRIBUTORS BE LIABLE
  26:Drivers/STM32F7xx_HAL_Driver/Src/stm32f7xx_ll_exti.c ****   * FOR ANY DIRECT, INDIRECT, INCIDENTAL, SPECIAL, EXEMPLARY, OR CONSEQUENTIAL
  27:Drivers/STM32F7xx_HAL_Driver/Src/stm32f7xx_ll_exti.c ****   * DAMAGES (INCLUDING, BUT NOT LIMITED TO, PROCUREMENT OF SUBSTITUTE GOODS OR
  28:Drivers/STM32F7xx_HAL_Driver/Src/stm32f7xx_ll_exti.c ****   * SERVICES; LOSS OF USE, DATA, OR PROFITS; OR BUSINESS INTERRUPTION) HOWEVER
  29:Drivers/STM32F7xx_HAL_Driver/Src/stm32f7xx_ll_exti.c ****   * CAUSED AND ON ANY THEORY OF LIABILITY, WHETHER IN CONTRACT, STRICT LIABILITY,
  30:Drivers/STM32F7xx_HAL_Driver/Src/stm32f7xx_ll_exti.c ****   * OR TORT (INCLUDING NEGLIGENCE OR OTHERWISE) ARISING IN ANY WAY OUT OF THE USE
  31:Drivers/STM32F7xx_HAL_Driver/Src/stm32f7xx_ll_exti.c ****   * OF THIS SOFTWARE, EVEN IF ADVISED OF THE POSSIBILITY OF SUCH DAMAGE.
  32:Drivers/STM32F7xx_HAL_Driver/Src/stm32f7xx_ll_exti.c ****   *
ARM GAS  /tmp/ccC8SZ8s.s 			page 2


  33:Drivers/STM32F7xx_HAL_Driver/Src/stm32f7xx_ll_exti.c ****   ******************************************************************************
  34:Drivers/STM32F7xx_HAL_Driver/Src/stm32f7xx_ll_exti.c ****   */
  35:Drivers/STM32F7xx_HAL_Driver/Src/stm32f7xx_ll_exti.c **** #if defined(USE_FULL_LL_DRIVER)
  36:Drivers/STM32F7xx_HAL_Driver/Src/stm32f7xx_ll_exti.c **** 
  37:Drivers/STM32F7xx_HAL_Driver/Src/stm32f7xx_ll_exti.c **** /* Includes ------------------------------------------------------------------*/
  38:Drivers/STM32F7xx_HAL_Driver/Src/stm32f7xx_ll_exti.c **** #include "stm32f7xx_ll_exti.h"
  39:Drivers/STM32F7xx_HAL_Driver/Src/stm32f7xx_ll_exti.c **** #ifdef  USE_FULL_ASSERT
  40:Drivers/STM32F7xx_HAL_Driver/Src/stm32f7xx_ll_exti.c **** #include "stm32_assert.h"
  41:Drivers/STM32F7xx_HAL_Driver/Src/stm32f7xx_ll_exti.c **** #else
  42:Drivers/STM32F7xx_HAL_Driver/Src/stm32f7xx_ll_exti.c **** #define assert_param(expr) ((void)0U)
  43:Drivers/STM32F7xx_HAL_Driver/Src/stm32f7xx_ll_exti.c **** #endif
  44:Drivers/STM32F7xx_HAL_Driver/Src/stm32f7xx_ll_exti.c **** 
  45:Drivers/STM32F7xx_HAL_Driver/Src/stm32f7xx_ll_exti.c **** /** @addtogroup STM32F7xx_LL_Driver
  46:Drivers/STM32F7xx_HAL_Driver/Src/stm32f7xx_ll_exti.c ****   * @{
  47:Drivers/STM32F7xx_HAL_Driver/Src/stm32f7xx_ll_exti.c ****   */
  48:Drivers/STM32F7xx_HAL_Driver/Src/stm32f7xx_ll_exti.c **** 
  49:Drivers/STM32F7xx_HAL_Driver/Src/stm32f7xx_ll_exti.c **** #if defined (EXTI)
  50:Drivers/STM32F7xx_HAL_Driver/Src/stm32f7xx_ll_exti.c **** 
  51:Drivers/STM32F7xx_HAL_Driver/Src/stm32f7xx_ll_exti.c **** /** @defgroup EXTI_LL EXTI
  52:Drivers/STM32F7xx_HAL_Driver/Src/stm32f7xx_ll_exti.c ****   * @{
  53:Drivers/STM32F7xx_HAL_Driver/Src/stm32f7xx_ll_exti.c ****   */
  54:Drivers/STM32F7xx_HAL_Driver/Src/stm32f7xx_ll_exti.c **** 
  55:Drivers/STM32F7xx_HAL_Driver/Src/stm32f7xx_ll_exti.c **** /* Private types -------------------------------------------------------------*/
  56:Drivers/STM32F7xx_HAL_Driver/Src/stm32f7xx_ll_exti.c **** /* Private variables ---------------------------------------------------------*/
  57:Drivers/STM32F7xx_HAL_Driver/Src/stm32f7xx_ll_exti.c **** /* Private constants ---------------------------------------------------------*/
  58:Drivers/STM32F7xx_HAL_Driver/Src/stm32f7xx_ll_exti.c **** /* Private macros ------------------------------------------------------------*/
  59:Drivers/STM32F7xx_HAL_Driver/Src/stm32f7xx_ll_exti.c **** /** @addtogroup EXTI_LL_Private_Macros
  60:Drivers/STM32F7xx_HAL_Driver/Src/stm32f7xx_ll_exti.c ****   * @{
  61:Drivers/STM32F7xx_HAL_Driver/Src/stm32f7xx_ll_exti.c ****   */
  62:Drivers/STM32F7xx_HAL_Driver/Src/stm32f7xx_ll_exti.c **** 
  63:Drivers/STM32F7xx_HAL_Driver/Src/stm32f7xx_ll_exti.c **** #define IS_LL_EXTI_LINE_0_31(__VALUE__)              (((__VALUE__) & ~LL_EXTI_LINE_ALL_0_31) == 0x0
  64:Drivers/STM32F7xx_HAL_Driver/Src/stm32f7xx_ll_exti.c **** 
  65:Drivers/STM32F7xx_HAL_Driver/Src/stm32f7xx_ll_exti.c **** #define IS_LL_EXTI_MODE(__VALUE__)                   (((__VALUE__) == LL_EXTI_MODE_IT)            \
  66:Drivers/STM32F7xx_HAL_Driver/Src/stm32f7xx_ll_exti.c ****                                                    || ((__VALUE__) == LL_EXTI_MODE_EVENT)         \
  67:Drivers/STM32F7xx_HAL_Driver/Src/stm32f7xx_ll_exti.c ****                                                    || ((__VALUE__) == LL_EXTI_MODE_IT_EVENT))
  68:Drivers/STM32F7xx_HAL_Driver/Src/stm32f7xx_ll_exti.c **** 
  69:Drivers/STM32F7xx_HAL_Driver/Src/stm32f7xx_ll_exti.c **** 
  70:Drivers/STM32F7xx_HAL_Driver/Src/stm32f7xx_ll_exti.c **** #define IS_LL_EXTI_TRIGGER(__VALUE__)                (((__VALUE__) == LL_EXTI_TRIGGER_NONE)       \
  71:Drivers/STM32F7xx_HAL_Driver/Src/stm32f7xx_ll_exti.c ****                                                    || ((__VALUE__) == LL_EXTI_TRIGGER_RISING)     \
  72:Drivers/STM32F7xx_HAL_Driver/Src/stm32f7xx_ll_exti.c ****                                                    || ((__VALUE__) == LL_EXTI_TRIGGER_FALLING)    \
  73:Drivers/STM32F7xx_HAL_Driver/Src/stm32f7xx_ll_exti.c ****                                                    || ((__VALUE__) == LL_EXTI_TRIGGER_RISING_FALLIN
  74:Drivers/STM32F7xx_HAL_Driver/Src/stm32f7xx_ll_exti.c **** 
  75:Drivers/STM32F7xx_HAL_Driver/Src/stm32f7xx_ll_exti.c **** /**
  76:Drivers/STM32F7xx_HAL_Driver/Src/stm32f7xx_ll_exti.c ****   * @}
  77:Drivers/STM32F7xx_HAL_Driver/Src/stm32f7xx_ll_exti.c ****   */
  78:Drivers/STM32F7xx_HAL_Driver/Src/stm32f7xx_ll_exti.c **** 
  79:Drivers/STM32F7xx_HAL_Driver/Src/stm32f7xx_ll_exti.c **** /* Private function prototypes -----------------------------------------------*/
  80:Drivers/STM32F7xx_HAL_Driver/Src/stm32f7xx_ll_exti.c **** 
  81:Drivers/STM32F7xx_HAL_Driver/Src/stm32f7xx_ll_exti.c **** /* Exported functions --------------------------------------------------------*/
  82:Drivers/STM32F7xx_HAL_Driver/Src/stm32f7xx_ll_exti.c **** /** @addtogroup EXTI_LL_Exported_Functions
  83:Drivers/STM32F7xx_HAL_Driver/Src/stm32f7xx_ll_exti.c ****   * @{
  84:Drivers/STM32F7xx_HAL_Driver/Src/stm32f7xx_ll_exti.c ****   */
  85:Drivers/STM32F7xx_HAL_Driver/Src/stm32f7xx_ll_exti.c **** 
  86:Drivers/STM32F7xx_HAL_Driver/Src/stm32f7xx_ll_exti.c **** /** @addtogroup EXTI_LL_EF_Init
  87:Drivers/STM32F7xx_HAL_Driver/Src/stm32f7xx_ll_exti.c ****   * @{
  88:Drivers/STM32F7xx_HAL_Driver/Src/stm32f7xx_ll_exti.c ****   */
  89:Drivers/STM32F7xx_HAL_Driver/Src/stm32f7xx_ll_exti.c **** 
ARM GAS  /tmp/ccC8SZ8s.s 			page 3


  90:Drivers/STM32F7xx_HAL_Driver/Src/stm32f7xx_ll_exti.c **** /**
  91:Drivers/STM32F7xx_HAL_Driver/Src/stm32f7xx_ll_exti.c ****   * @brief  De-initialize the EXTI registers to their default reset values.
  92:Drivers/STM32F7xx_HAL_Driver/Src/stm32f7xx_ll_exti.c ****   * @retval An ErrorStatus enumeration value:
  93:Drivers/STM32F7xx_HAL_Driver/Src/stm32f7xx_ll_exti.c ****   *          - SUCCESS: EXTI registers are de-initialized
  94:Drivers/STM32F7xx_HAL_Driver/Src/stm32f7xx_ll_exti.c ****   *          - ERROR: not applicable
  95:Drivers/STM32F7xx_HAL_Driver/Src/stm32f7xx_ll_exti.c ****   */
  96:Drivers/STM32F7xx_HAL_Driver/Src/stm32f7xx_ll_exti.c **** uint32_t LL_EXTI_DeInit(void)
  97:Drivers/STM32F7xx_HAL_Driver/Src/stm32f7xx_ll_exti.c **** {
  27              		.loc 1 97 0
  28              		.cfi_startproc
  29              		@ args = 0, pretend = 0, frame = 0
  30              		@ frame_needed = 0, uses_anonymous_args = 0
  31              		@ link register save eliminated.
  98:Drivers/STM32F7xx_HAL_Driver/Src/stm32f7xx_ll_exti.c ****   /* Interrupt mask register set to default reset values */
  99:Drivers/STM32F7xx_HAL_Driver/Src/stm32f7xx_ll_exti.c ****   LL_EXTI_WriteReg(IMR,   0x00000000U);
  32              		.loc 1 99 0
  33 0000 054B     		ldr	r3, .L2
  34 0002 0022     		movs	r2, #0
  35 0004 1A60     		str	r2, [r3]
 100:Drivers/STM32F7xx_HAL_Driver/Src/stm32f7xx_ll_exti.c ****   /* Event mask register set to default reset values */
 101:Drivers/STM32F7xx_HAL_Driver/Src/stm32f7xx_ll_exti.c ****   LL_EXTI_WriteReg(EMR,   0x00000000U);
  36              		.loc 1 101 0
  37 0006 5A60     		str	r2, [r3, #4]
 102:Drivers/STM32F7xx_HAL_Driver/Src/stm32f7xx_ll_exti.c ****   /* Rising Trigger selection register set to default reset values */
 103:Drivers/STM32F7xx_HAL_Driver/Src/stm32f7xx_ll_exti.c ****   LL_EXTI_WriteReg(RTSR,  0x00000000U);
  38              		.loc 1 103 0
  39 0008 9A60     		str	r2, [r3, #8]
 104:Drivers/STM32F7xx_HAL_Driver/Src/stm32f7xx_ll_exti.c ****   /* Falling Trigger selection register set to default reset values */
 105:Drivers/STM32F7xx_HAL_Driver/Src/stm32f7xx_ll_exti.c ****   LL_EXTI_WriteReg(FTSR,  0x00000000U);
  40              		.loc 1 105 0
  41 000a DA60     		str	r2, [r3, #12]
 106:Drivers/STM32F7xx_HAL_Driver/Src/stm32f7xx_ll_exti.c ****   /* Software interrupt event register set to default reset values */
 107:Drivers/STM32F7xx_HAL_Driver/Src/stm32f7xx_ll_exti.c ****   LL_EXTI_WriteReg(SWIER, 0x00000000U);
  42              		.loc 1 107 0
  43 000c 1A61     		str	r2, [r3, #16]
 108:Drivers/STM32F7xx_HAL_Driver/Src/stm32f7xx_ll_exti.c ****   /* Pending register set to default reset values */
 109:Drivers/STM32F7xx_HAL_Driver/Src/stm32f7xx_ll_exti.c ****   LL_EXTI_WriteReg(PR,    0x01FFFFFFU);
  44              		.loc 1 109 0
  45 000e 6FF07E42 		mvn	r2, #-33554432
  46 0012 5A61     		str	r2, [r3, #20]
 110:Drivers/STM32F7xx_HAL_Driver/Src/stm32f7xx_ll_exti.c **** 
 111:Drivers/STM32F7xx_HAL_Driver/Src/stm32f7xx_ll_exti.c ****   return SUCCESS;
 112:Drivers/STM32F7xx_HAL_Driver/Src/stm32f7xx_ll_exti.c **** }
  47              		.loc 1 112 0
  48 0014 0120     		movs	r0, #1
  49 0016 7047     		bx	lr
  50              	.L3:
  51              		.align	2
  52              	.L2:
  53 0018 003C0140 		.word	1073822720
  54              		.cfi_endproc
  55              	.LFE151:
  57              		.section	.text.LL_EXTI_Init,"ax",%progbits
  58              		.align	1
  59              		.global	LL_EXTI_Init
  60              		.syntax unified
  61              		.thumb
ARM GAS  /tmp/ccC8SZ8s.s 			page 4


  62              		.thumb_func
  63              		.fpu fpv5-d16
  65              	LL_EXTI_Init:
  66              	.LFB152:
 113:Drivers/STM32F7xx_HAL_Driver/Src/stm32f7xx_ll_exti.c **** 
 114:Drivers/STM32F7xx_HAL_Driver/Src/stm32f7xx_ll_exti.c **** /**
 115:Drivers/STM32F7xx_HAL_Driver/Src/stm32f7xx_ll_exti.c ****   * @brief  Initialize the EXTI registers according to the specified parameters in EXTI_InitStruct.
 116:Drivers/STM32F7xx_HAL_Driver/Src/stm32f7xx_ll_exti.c ****   * @param  EXTI_InitStruct pointer to a @ref LL_EXTI_InitTypeDef structure.
 117:Drivers/STM32F7xx_HAL_Driver/Src/stm32f7xx_ll_exti.c ****   * @retval An ErrorStatus enumeration value:
 118:Drivers/STM32F7xx_HAL_Driver/Src/stm32f7xx_ll_exti.c ****   *          - SUCCESS: EXTI registers are initialized
 119:Drivers/STM32F7xx_HAL_Driver/Src/stm32f7xx_ll_exti.c ****   *          - ERROR: not applicable
 120:Drivers/STM32F7xx_HAL_Driver/Src/stm32f7xx_ll_exti.c ****   */
 121:Drivers/STM32F7xx_HAL_Driver/Src/stm32f7xx_ll_exti.c **** uint32_t LL_EXTI_Init(LL_EXTI_InitTypeDef *EXTI_InitStruct)
 122:Drivers/STM32F7xx_HAL_Driver/Src/stm32f7xx_ll_exti.c **** {
  67              		.loc 1 122 0
  68              		.cfi_startproc
  69              		@ args = 0, pretend = 0, frame = 0
  70              		@ frame_needed = 0, uses_anonymous_args = 0
  71              		@ link register save eliminated.
  72              	.LVL0:
  73 0000 0346     		mov	r3, r0
  74              	.LVL1:
 123:Drivers/STM32F7xx_HAL_Driver/Src/stm32f7xx_ll_exti.c ****   ErrorStatus status = SUCCESS;
 124:Drivers/STM32F7xx_HAL_Driver/Src/stm32f7xx_ll_exti.c ****   /* Check the parameters */
 125:Drivers/STM32F7xx_HAL_Driver/Src/stm32f7xx_ll_exti.c ****   assert_param(IS_LL_EXTI_LINE_0_31(EXTI_InitStruct->Line_0_31));
 126:Drivers/STM32F7xx_HAL_Driver/Src/stm32f7xx_ll_exti.c ****   assert_param(IS_FUNCTIONAL_STATE(EXTI_InitStruct->LineCommand));
 127:Drivers/STM32F7xx_HAL_Driver/Src/stm32f7xx_ll_exti.c ****   assert_param(IS_LL_EXTI_MODE(EXTI_InitStruct->Mode));
 128:Drivers/STM32F7xx_HAL_Driver/Src/stm32f7xx_ll_exti.c **** 
 129:Drivers/STM32F7xx_HAL_Driver/Src/stm32f7xx_ll_exti.c ****   /* ENABLE LineCommand */
 130:Drivers/STM32F7xx_HAL_Driver/Src/stm32f7xx_ll_exti.c ****   if (EXTI_InitStruct->LineCommand != DISABLE)
  75              		.loc 1 130 0
  76 0002 0279     		ldrb	r2, [r0, #4]	@ zero_extendqisi2
  77 0004 002A     		cmp	r2, #0
  78 0006 57D0     		beq	.L5
 131:Drivers/STM32F7xx_HAL_Driver/Src/stm32f7xx_ll_exti.c ****   {
 132:Drivers/STM32F7xx_HAL_Driver/Src/stm32f7xx_ll_exti.c ****     assert_param(IS_LL_EXTI_TRIGGER(EXTI_InitStruct->Trigger));
 133:Drivers/STM32F7xx_HAL_Driver/Src/stm32f7xx_ll_exti.c **** 
 134:Drivers/STM32F7xx_HAL_Driver/Src/stm32f7xx_ll_exti.c ****     /* Configure EXTI Lines in range from 0 to 31 */
 135:Drivers/STM32F7xx_HAL_Driver/Src/stm32f7xx_ll_exti.c ****     if (EXTI_InitStruct->Line_0_31 != LL_EXTI_LINE_NONE)
  79              		.loc 1 135 0
  80 0008 0268     		ldr	r2, [r0]
  81 000a 002A     		cmp	r2, #0
  82 000c 61D0     		beq	.L14
 136:Drivers/STM32F7xx_HAL_Driver/Src/stm32f7xx_ll_exti.c ****     {
 137:Drivers/STM32F7xx_HAL_Driver/Src/stm32f7xx_ll_exti.c ****       switch (EXTI_InitStruct->Mode)
  83              		.loc 1 137 0
  84 000e 4179     		ldrb	r1, [r0, #5]	@ zero_extendqisi2
  85 0010 0129     		cmp	r1, #1
  86 0012 1CD0     		beq	.L8
  87 0014 19B1     		cbz	r1, .L9
  88 0016 0229     		cmp	r1, #2
  89 0018 24D0     		beq	.L10
 138:Drivers/STM32F7xx_HAL_Driver/Src/stm32f7xx_ll_exti.c ****       {
 139:Drivers/STM32F7xx_HAL_Driver/Src/stm32f7xx_ll_exti.c ****         case LL_EXTI_MODE_IT:
 140:Drivers/STM32F7xx_HAL_Driver/Src/stm32f7xx_ll_exti.c ****           /* First Disable Event on provided Lines */
 141:Drivers/STM32F7xx_HAL_Driver/Src/stm32f7xx_ll_exti.c ****           LL_EXTI_DisableEvent_0_31(EXTI_InitStruct->Line_0_31);
 142:Drivers/STM32F7xx_HAL_Driver/Src/stm32f7xx_ll_exti.c ****           /* Then Enable IT on provided Lines */
ARM GAS  /tmp/ccC8SZ8s.s 			page 5


 143:Drivers/STM32F7xx_HAL_Driver/Src/stm32f7xx_ll_exti.c ****           LL_EXTI_EnableIT_0_31(EXTI_InitStruct->Line_0_31);
 144:Drivers/STM32F7xx_HAL_Driver/Src/stm32f7xx_ll_exti.c ****           break;
 145:Drivers/STM32F7xx_HAL_Driver/Src/stm32f7xx_ll_exti.c ****         case LL_EXTI_MODE_EVENT:
 146:Drivers/STM32F7xx_HAL_Driver/Src/stm32f7xx_ll_exti.c ****           /* First Disable IT on provided Lines */
 147:Drivers/STM32F7xx_HAL_Driver/Src/stm32f7xx_ll_exti.c ****           LL_EXTI_DisableIT_0_31(EXTI_InitStruct->Line_0_31);
 148:Drivers/STM32F7xx_HAL_Driver/Src/stm32f7xx_ll_exti.c ****           /* Then Enable Event on provided Lines */
 149:Drivers/STM32F7xx_HAL_Driver/Src/stm32f7xx_ll_exti.c ****           LL_EXTI_EnableEvent_0_31(EXTI_InitStruct->Line_0_31);
 150:Drivers/STM32F7xx_HAL_Driver/Src/stm32f7xx_ll_exti.c ****           break;
 151:Drivers/STM32F7xx_HAL_Driver/Src/stm32f7xx_ll_exti.c ****         case LL_EXTI_MODE_IT_EVENT:
 152:Drivers/STM32F7xx_HAL_Driver/Src/stm32f7xx_ll_exti.c ****           /* Directly Enable IT & Event on provided Lines */
 153:Drivers/STM32F7xx_HAL_Driver/Src/stm32f7xx_ll_exti.c ****           LL_EXTI_EnableIT_0_31(EXTI_InitStruct->Line_0_31);
 154:Drivers/STM32F7xx_HAL_Driver/Src/stm32f7xx_ll_exti.c ****           LL_EXTI_EnableEvent_0_31(EXTI_InitStruct->Line_0_31);
 155:Drivers/STM32F7xx_HAL_Driver/Src/stm32f7xx_ll_exti.c ****           break;
 156:Drivers/STM32F7xx_HAL_Driver/Src/stm32f7xx_ll_exti.c ****         default:
 157:Drivers/STM32F7xx_HAL_Driver/Src/stm32f7xx_ll_exti.c ****           status = ERROR;
  90              		.loc 1 157 0
  91 001a 0020     		movs	r0, #0
  92              	.LVL2:
  93 001c 09E0     		b	.L7
  94              	.LVL3:
  95              	.L9:
  96              	.LBB30:
  97              	.LBB31:
  98              		.file 2 "Drivers/STM32F7xx_HAL_Driver/Inc/stm32f7xx_ll_exti.h"
   1:Drivers/STM32F7xx_HAL_Driver/Inc/stm32f7xx_ll_exti.h **** /**
   2:Drivers/STM32F7xx_HAL_Driver/Inc/stm32f7xx_ll_exti.h ****   ******************************************************************************
   3:Drivers/STM32F7xx_HAL_Driver/Inc/stm32f7xx_ll_exti.h ****   * @file    stm32f7xx_ll_exti.h
   4:Drivers/STM32F7xx_HAL_Driver/Inc/stm32f7xx_ll_exti.h ****   * @author  MCD Application Team
   5:Drivers/STM32F7xx_HAL_Driver/Inc/stm32f7xx_ll_exti.h ****   * @brief   Header file of EXTI LL module.
   6:Drivers/STM32F7xx_HAL_Driver/Inc/stm32f7xx_ll_exti.h ****   ******************************************************************************
   7:Drivers/STM32F7xx_HAL_Driver/Inc/stm32f7xx_ll_exti.h ****   * @attention
   8:Drivers/STM32F7xx_HAL_Driver/Inc/stm32f7xx_ll_exti.h ****   *
   9:Drivers/STM32F7xx_HAL_Driver/Inc/stm32f7xx_ll_exti.h ****   * <h2><center>&copy; COPYRIGHT(c) 2017 STMicroelectronics</center></h2>
  10:Drivers/STM32F7xx_HAL_Driver/Inc/stm32f7xx_ll_exti.h ****   *
  11:Drivers/STM32F7xx_HAL_Driver/Inc/stm32f7xx_ll_exti.h ****   * Redistribution and use in source and binary forms, with or without modification,
  12:Drivers/STM32F7xx_HAL_Driver/Inc/stm32f7xx_ll_exti.h ****   * are permitted provided that the following conditions are met:
  13:Drivers/STM32F7xx_HAL_Driver/Inc/stm32f7xx_ll_exti.h ****   *   1. Redistributions of source code must retain the above copyright notice,
  14:Drivers/STM32F7xx_HAL_Driver/Inc/stm32f7xx_ll_exti.h ****   *      this list of conditions and the following disclaimer.
  15:Drivers/STM32F7xx_HAL_Driver/Inc/stm32f7xx_ll_exti.h ****   *   2. Redistributions in binary form must reproduce the above copyright notice,
  16:Drivers/STM32F7xx_HAL_Driver/Inc/stm32f7xx_ll_exti.h ****   *      this list of conditions and the following disclaimer in the documentation
  17:Drivers/STM32F7xx_HAL_Driver/Inc/stm32f7xx_ll_exti.h ****   *      and/or other materials provided with the distribution.
  18:Drivers/STM32F7xx_HAL_Driver/Inc/stm32f7xx_ll_exti.h ****   *   3. Neither the name of STMicroelectronics nor the names of its contributors
  19:Drivers/STM32F7xx_HAL_Driver/Inc/stm32f7xx_ll_exti.h ****   *      may be used to endorse or promote products derived from this software
  20:Drivers/STM32F7xx_HAL_Driver/Inc/stm32f7xx_ll_exti.h ****   *      without specific prior written permission.
  21:Drivers/STM32F7xx_HAL_Driver/Inc/stm32f7xx_ll_exti.h ****   *
  22:Drivers/STM32F7xx_HAL_Driver/Inc/stm32f7xx_ll_exti.h ****   * THIS SOFTWARE IS PROVIDED BY THE COPYRIGHT HOLDERS AND CONTRIBUTORS "AS IS"
  23:Drivers/STM32F7xx_HAL_Driver/Inc/stm32f7xx_ll_exti.h ****   * AND ANY EXPRESS OR IMPLIED WARRANTIES, INCLUDING, BUT NOT LIMITED TO, THE
  24:Drivers/STM32F7xx_HAL_Driver/Inc/stm32f7xx_ll_exti.h ****   * IMPLIED WARRANTIES OF MERCHANTABILITY AND FITNESS FOR A PARTICULAR PURPOSE ARE
  25:Drivers/STM32F7xx_HAL_Driver/Inc/stm32f7xx_ll_exti.h ****   * DISCLAIMED. IN NO EVENT SHALL THE COPYRIGHT HOLDER OR CONTRIBUTORS BE LIABLE
  26:Drivers/STM32F7xx_HAL_Driver/Inc/stm32f7xx_ll_exti.h ****   * FOR ANY DIRECT, INDIRECT, INCIDENTAL, SPECIAL, EXEMPLARY, OR CONSEQUENTIAL
  27:Drivers/STM32F7xx_HAL_Driver/Inc/stm32f7xx_ll_exti.h ****   * DAMAGES (INCLUDING, BUT NOT LIMITED TO, PROCUREMENT OF SUBSTITUTE GOODS OR
  28:Drivers/STM32F7xx_HAL_Driver/Inc/stm32f7xx_ll_exti.h ****   * SERVICES; LOSS OF USE, DATA, OR PROFITS; OR BUSINESS INTERRUPTION) HOWEVER
  29:Drivers/STM32F7xx_HAL_Driver/Inc/stm32f7xx_ll_exti.h ****   * CAUSED AND ON ANY THEORY OF LIABILITY, WHETHER IN CONTRACT, STRICT LIABILITY,
  30:Drivers/STM32F7xx_HAL_Driver/Inc/stm32f7xx_ll_exti.h ****   * OR TORT (INCLUDING NEGLIGENCE OR OTHERWISE) ARISING IN ANY WAY OUT OF THE USE
  31:Drivers/STM32F7xx_HAL_Driver/Inc/stm32f7xx_ll_exti.h ****   * OF THIS SOFTWARE, EVEN IF ADVISED OF THE POSSIBILITY OF SUCH DAMAGE.
  32:Drivers/STM32F7xx_HAL_Driver/Inc/stm32f7xx_ll_exti.h ****   *
  33:Drivers/STM32F7xx_HAL_Driver/Inc/stm32f7xx_ll_exti.h ****   ******************************************************************************
ARM GAS  /tmp/ccC8SZ8s.s 			page 6


  34:Drivers/STM32F7xx_HAL_Driver/Inc/stm32f7xx_ll_exti.h ****   */
  35:Drivers/STM32F7xx_HAL_Driver/Inc/stm32f7xx_ll_exti.h **** 
  36:Drivers/STM32F7xx_HAL_Driver/Inc/stm32f7xx_ll_exti.h **** /* Define to prevent recursive inclusion -------------------------------------*/
  37:Drivers/STM32F7xx_HAL_Driver/Inc/stm32f7xx_ll_exti.h **** #ifndef __STM32F7xx_LL_EXTI_H
  38:Drivers/STM32F7xx_HAL_Driver/Inc/stm32f7xx_ll_exti.h **** #define __STM32F7xx_LL_EXTI_H
  39:Drivers/STM32F7xx_HAL_Driver/Inc/stm32f7xx_ll_exti.h **** 
  40:Drivers/STM32F7xx_HAL_Driver/Inc/stm32f7xx_ll_exti.h **** #ifdef __cplusplus
  41:Drivers/STM32F7xx_HAL_Driver/Inc/stm32f7xx_ll_exti.h **** extern "C" {
  42:Drivers/STM32F7xx_HAL_Driver/Inc/stm32f7xx_ll_exti.h **** #endif
  43:Drivers/STM32F7xx_HAL_Driver/Inc/stm32f7xx_ll_exti.h **** 
  44:Drivers/STM32F7xx_HAL_Driver/Inc/stm32f7xx_ll_exti.h **** /* Includes ------------------------------------------------------------------*/
  45:Drivers/STM32F7xx_HAL_Driver/Inc/stm32f7xx_ll_exti.h **** #include "stm32f7xx.h"
  46:Drivers/STM32F7xx_HAL_Driver/Inc/stm32f7xx_ll_exti.h **** 
  47:Drivers/STM32F7xx_HAL_Driver/Inc/stm32f7xx_ll_exti.h **** /** @addtogroup STM32F7xx_LL_Driver
  48:Drivers/STM32F7xx_HAL_Driver/Inc/stm32f7xx_ll_exti.h ****   * @{
  49:Drivers/STM32F7xx_HAL_Driver/Inc/stm32f7xx_ll_exti.h ****   */
  50:Drivers/STM32F7xx_HAL_Driver/Inc/stm32f7xx_ll_exti.h **** 
  51:Drivers/STM32F7xx_HAL_Driver/Inc/stm32f7xx_ll_exti.h **** #if defined (EXTI)
  52:Drivers/STM32F7xx_HAL_Driver/Inc/stm32f7xx_ll_exti.h **** 
  53:Drivers/STM32F7xx_HAL_Driver/Inc/stm32f7xx_ll_exti.h **** /** @defgroup EXTI_LL EXTI
  54:Drivers/STM32F7xx_HAL_Driver/Inc/stm32f7xx_ll_exti.h ****   * @{
  55:Drivers/STM32F7xx_HAL_Driver/Inc/stm32f7xx_ll_exti.h ****   */
  56:Drivers/STM32F7xx_HAL_Driver/Inc/stm32f7xx_ll_exti.h **** 
  57:Drivers/STM32F7xx_HAL_Driver/Inc/stm32f7xx_ll_exti.h **** /* Private types -------------------------------------------------------------*/
  58:Drivers/STM32F7xx_HAL_Driver/Inc/stm32f7xx_ll_exti.h **** /* Private variables ---------------------------------------------------------*/
  59:Drivers/STM32F7xx_HAL_Driver/Inc/stm32f7xx_ll_exti.h **** /* Private constants ---------------------------------------------------------*/
  60:Drivers/STM32F7xx_HAL_Driver/Inc/stm32f7xx_ll_exti.h **** /* Private Macros ------------------------------------------------------------*/
  61:Drivers/STM32F7xx_HAL_Driver/Inc/stm32f7xx_ll_exti.h **** #if defined(USE_FULL_LL_DRIVER)
  62:Drivers/STM32F7xx_HAL_Driver/Inc/stm32f7xx_ll_exti.h **** /** @defgroup EXTI_LL_Private_Macros EXTI Private Macros
  63:Drivers/STM32F7xx_HAL_Driver/Inc/stm32f7xx_ll_exti.h ****   * @{
  64:Drivers/STM32F7xx_HAL_Driver/Inc/stm32f7xx_ll_exti.h ****   */
  65:Drivers/STM32F7xx_HAL_Driver/Inc/stm32f7xx_ll_exti.h **** /**
  66:Drivers/STM32F7xx_HAL_Driver/Inc/stm32f7xx_ll_exti.h ****   * @}
  67:Drivers/STM32F7xx_HAL_Driver/Inc/stm32f7xx_ll_exti.h ****   */
  68:Drivers/STM32F7xx_HAL_Driver/Inc/stm32f7xx_ll_exti.h **** #endif /*USE_FULL_LL_DRIVER*/
  69:Drivers/STM32F7xx_HAL_Driver/Inc/stm32f7xx_ll_exti.h **** /* Exported types ------------------------------------------------------------*/
  70:Drivers/STM32F7xx_HAL_Driver/Inc/stm32f7xx_ll_exti.h **** #if defined(USE_FULL_LL_DRIVER)
  71:Drivers/STM32F7xx_HAL_Driver/Inc/stm32f7xx_ll_exti.h **** /** @defgroup EXTI_LL_ES_INIT EXTI Exported Init structure
  72:Drivers/STM32F7xx_HAL_Driver/Inc/stm32f7xx_ll_exti.h ****   * @{
  73:Drivers/STM32F7xx_HAL_Driver/Inc/stm32f7xx_ll_exti.h ****   */
  74:Drivers/STM32F7xx_HAL_Driver/Inc/stm32f7xx_ll_exti.h **** typedef struct
  75:Drivers/STM32F7xx_HAL_Driver/Inc/stm32f7xx_ll_exti.h **** {
  76:Drivers/STM32F7xx_HAL_Driver/Inc/stm32f7xx_ll_exti.h **** 
  77:Drivers/STM32F7xx_HAL_Driver/Inc/stm32f7xx_ll_exti.h ****   uint32_t Line_0_31;           /*!< Specifies the EXTI lines to be enabled or disabled for Lines i
  78:Drivers/STM32F7xx_HAL_Driver/Inc/stm32f7xx_ll_exti.h ****                                      This parameter can be any combination of @ref EXTI_LL_EC_LINE 
  79:Drivers/STM32F7xx_HAL_Driver/Inc/stm32f7xx_ll_exti.h **** 
  80:Drivers/STM32F7xx_HAL_Driver/Inc/stm32f7xx_ll_exti.h ****   FunctionalState LineCommand;  /*!< Specifies the new state of the selected EXTI lines.
  81:Drivers/STM32F7xx_HAL_Driver/Inc/stm32f7xx_ll_exti.h ****                                      This parameter can be set either to ENABLE or DISABLE */
  82:Drivers/STM32F7xx_HAL_Driver/Inc/stm32f7xx_ll_exti.h **** 
  83:Drivers/STM32F7xx_HAL_Driver/Inc/stm32f7xx_ll_exti.h ****   uint8_t Mode;                 /*!< Specifies the mode for the EXTI lines.
  84:Drivers/STM32F7xx_HAL_Driver/Inc/stm32f7xx_ll_exti.h ****                                      This parameter can be a value of @ref EXTI_LL_EC_MODE. */
  85:Drivers/STM32F7xx_HAL_Driver/Inc/stm32f7xx_ll_exti.h **** 
  86:Drivers/STM32F7xx_HAL_Driver/Inc/stm32f7xx_ll_exti.h ****   uint8_t Trigger;              /*!< Specifies the trigger signal active edge for the EXTI lines.
  87:Drivers/STM32F7xx_HAL_Driver/Inc/stm32f7xx_ll_exti.h ****                                      This parameter can be a value of @ref EXTI_LL_EC_TRIGGER. */
  88:Drivers/STM32F7xx_HAL_Driver/Inc/stm32f7xx_ll_exti.h **** } LL_EXTI_InitTypeDef;
  89:Drivers/STM32F7xx_HAL_Driver/Inc/stm32f7xx_ll_exti.h **** 
  90:Drivers/STM32F7xx_HAL_Driver/Inc/stm32f7xx_ll_exti.h **** /**
ARM GAS  /tmp/ccC8SZ8s.s 			page 7


  91:Drivers/STM32F7xx_HAL_Driver/Inc/stm32f7xx_ll_exti.h ****   * @}
  92:Drivers/STM32F7xx_HAL_Driver/Inc/stm32f7xx_ll_exti.h ****   */
  93:Drivers/STM32F7xx_HAL_Driver/Inc/stm32f7xx_ll_exti.h **** #endif /*USE_FULL_LL_DRIVER*/
  94:Drivers/STM32F7xx_HAL_Driver/Inc/stm32f7xx_ll_exti.h **** 
  95:Drivers/STM32F7xx_HAL_Driver/Inc/stm32f7xx_ll_exti.h **** /* Exported constants --------------------------------------------------------*/
  96:Drivers/STM32F7xx_HAL_Driver/Inc/stm32f7xx_ll_exti.h **** /** @defgroup EXTI_LL_Exported_Constants EXTI Exported Constants
  97:Drivers/STM32F7xx_HAL_Driver/Inc/stm32f7xx_ll_exti.h ****   * @{
  98:Drivers/STM32F7xx_HAL_Driver/Inc/stm32f7xx_ll_exti.h ****   */
  99:Drivers/STM32F7xx_HAL_Driver/Inc/stm32f7xx_ll_exti.h **** 
 100:Drivers/STM32F7xx_HAL_Driver/Inc/stm32f7xx_ll_exti.h **** /** @defgroup EXTI_LL_EC_LINE LINE
 101:Drivers/STM32F7xx_HAL_Driver/Inc/stm32f7xx_ll_exti.h ****   * @{
 102:Drivers/STM32F7xx_HAL_Driver/Inc/stm32f7xx_ll_exti.h ****   */
 103:Drivers/STM32F7xx_HAL_Driver/Inc/stm32f7xx_ll_exti.h **** #define LL_EXTI_LINE_0                 EXTI_IMR_IM0           /*!< Extended line 0 */
 104:Drivers/STM32F7xx_HAL_Driver/Inc/stm32f7xx_ll_exti.h **** #define LL_EXTI_LINE_1                 EXTI_IMR_IM1           /*!< Extended line 1 */
 105:Drivers/STM32F7xx_HAL_Driver/Inc/stm32f7xx_ll_exti.h **** #define LL_EXTI_LINE_2                 EXTI_IMR_IM2           /*!< Extended line 2 */
 106:Drivers/STM32F7xx_HAL_Driver/Inc/stm32f7xx_ll_exti.h **** #define LL_EXTI_LINE_3                 EXTI_IMR_IM3           /*!< Extended line 3 */
 107:Drivers/STM32F7xx_HAL_Driver/Inc/stm32f7xx_ll_exti.h **** #define LL_EXTI_LINE_4                 EXTI_IMR_IM4           /*!< Extended line 4 */
 108:Drivers/STM32F7xx_HAL_Driver/Inc/stm32f7xx_ll_exti.h **** #define LL_EXTI_LINE_5                 EXTI_IMR_IM5           /*!< Extended line 5 */
 109:Drivers/STM32F7xx_HAL_Driver/Inc/stm32f7xx_ll_exti.h **** #define LL_EXTI_LINE_6                 EXTI_IMR_IM6           /*!< Extended line 6 */
 110:Drivers/STM32F7xx_HAL_Driver/Inc/stm32f7xx_ll_exti.h **** #define LL_EXTI_LINE_7                 EXTI_IMR_IM7           /*!< Extended line 7 */
 111:Drivers/STM32F7xx_HAL_Driver/Inc/stm32f7xx_ll_exti.h **** #define LL_EXTI_LINE_8                 EXTI_IMR_IM8           /*!< Extended line 8 */
 112:Drivers/STM32F7xx_HAL_Driver/Inc/stm32f7xx_ll_exti.h **** #define LL_EXTI_LINE_9                 EXTI_IMR_IM9           /*!< Extended line 9 */
 113:Drivers/STM32F7xx_HAL_Driver/Inc/stm32f7xx_ll_exti.h **** #define LL_EXTI_LINE_10                EXTI_IMR_IM10          /*!< Extended line 10 */
 114:Drivers/STM32F7xx_HAL_Driver/Inc/stm32f7xx_ll_exti.h **** #define LL_EXTI_LINE_11                EXTI_IMR_IM11          /*!< Extended line 11 */
 115:Drivers/STM32F7xx_HAL_Driver/Inc/stm32f7xx_ll_exti.h **** #define LL_EXTI_LINE_12                EXTI_IMR_IM12          /*!< Extended line 12 */
 116:Drivers/STM32F7xx_HAL_Driver/Inc/stm32f7xx_ll_exti.h **** #define LL_EXTI_LINE_13                EXTI_IMR_IM13          /*!< Extended line 13 */
 117:Drivers/STM32F7xx_HAL_Driver/Inc/stm32f7xx_ll_exti.h **** #define LL_EXTI_LINE_14                EXTI_IMR_IM14          /*!< Extended line 14 */
 118:Drivers/STM32F7xx_HAL_Driver/Inc/stm32f7xx_ll_exti.h **** #define LL_EXTI_LINE_15                EXTI_IMR_IM15          /*!< Extended line 15 */
 119:Drivers/STM32F7xx_HAL_Driver/Inc/stm32f7xx_ll_exti.h **** #if defined(EXTI_IMR_IM16)
 120:Drivers/STM32F7xx_HAL_Driver/Inc/stm32f7xx_ll_exti.h **** #define LL_EXTI_LINE_16                EXTI_IMR_IM16          /*!< Extended line 16 */
 121:Drivers/STM32F7xx_HAL_Driver/Inc/stm32f7xx_ll_exti.h **** #endif
 122:Drivers/STM32F7xx_HAL_Driver/Inc/stm32f7xx_ll_exti.h **** #define LL_EXTI_LINE_17                EXTI_IMR_IM17          /*!< Extended line 17 */
 123:Drivers/STM32F7xx_HAL_Driver/Inc/stm32f7xx_ll_exti.h **** #if defined(EXTI_IMR_IM18)
 124:Drivers/STM32F7xx_HAL_Driver/Inc/stm32f7xx_ll_exti.h **** #define LL_EXTI_LINE_18                EXTI_IMR_IM18          /*!< Extended line 18 */
 125:Drivers/STM32F7xx_HAL_Driver/Inc/stm32f7xx_ll_exti.h **** #endif
 126:Drivers/STM32F7xx_HAL_Driver/Inc/stm32f7xx_ll_exti.h **** #define LL_EXTI_LINE_19                EXTI_IMR_IM19          /*!< Extended line 19 */
 127:Drivers/STM32F7xx_HAL_Driver/Inc/stm32f7xx_ll_exti.h **** #if defined(EXTI_IMR_IM20)
 128:Drivers/STM32F7xx_HAL_Driver/Inc/stm32f7xx_ll_exti.h **** #define LL_EXTI_LINE_20                EXTI_IMR_IM20          /*!< Extended line 20 */
 129:Drivers/STM32F7xx_HAL_Driver/Inc/stm32f7xx_ll_exti.h **** #endif
 130:Drivers/STM32F7xx_HAL_Driver/Inc/stm32f7xx_ll_exti.h **** #if defined(EXTI_IMR_IM21)
 131:Drivers/STM32F7xx_HAL_Driver/Inc/stm32f7xx_ll_exti.h **** #define LL_EXTI_LINE_21                EXTI_IMR_IM21          /*!< Extended line 21 */
 132:Drivers/STM32F7xx_HAL_Driver/Inc/stm32f7xx_ll_exti.h **** #endif
 133:Drivers/STM32F7xx_HAL_Driver/Inc/stm32f7xx_ll_exti.h **** #if defined(EXTI_IMR_IM22)
 134:Drivers/STM32F7xx_HAL_Driver/Inc/stm32f7xx_ll_exti.h **** #define LL_EXTI_LINE_22                EXTI_IMR_IM22          /*!< Extended line 22 */
 135:Drivers/STM32F7xx_HAL_Driver/Inc/stm32f7xx_ll_exti.h **** #endif
 136:Drivers/STM32F7xx_HAL_Driver/Inc/stm32f7xx_ll_exti.h **** #define LL_EXTI_LINE_23                EXTI_IMR_IM23          /*!< Extended line 23 */
 137:Drivers/STM32F7xx_HAL_Driver/Inc/stm32f7xx_ll_exti.h **** #if defined(EXTI_IMR_IM24)
 138:Drivers/STM32F7xx_HAL_Driver/Inc/stm32f7xx_ll_exti.h **** #define LL_EXTI_LINE_24                EXTI_IMR_IM24          /*!< Extended line 24 */
 139:Drivers/STM32F7xx_HAL_Driver/Inc/stm32f7xx_ll_exti.h **** #endif
 140:Drivers/STM32F7xx_HAL_Driver/Inc/stm32f7xx_ll_exti.h **** #if defined(EXTI_IMR_IM25)
 141:Drivers/STM32F7xx_HAL_Driver/Inc/stm32f7xx_ll_exti.h **** #define LL_EXTI_LINE_25                EXTI_IMR_IM25          /*!< Extended line 25 */
 142:Drivers/STM32F7xx_HAL_Driver/Inc/stm32f7xx_ll_exti.h **** #endif
 143:Drivers/STM32F7xx_HAL_Driver/Inc/stm32f7xx_ll_exti.h **** #if defined(EXTI_IMR_IM26)
 144:Drivers/STM32F7xx_HAL_Driver/Inc/stm32f7xx_ll_exti.h **** #define LL_EXTI_LINE_26                EXTI_IMR_IM26          /*!< Extended line 26 */
 145:Drivers/STM32F7xx_HAL_Driver/Inc/stm32f7xx_ll_exti.h **** #endif
 146:Drivers/STM32F7xx_HAL_Driver/Inc/stm32f7xx_ll_exti.h **** #if defined(EXTI_IMR_IM27)
 147:Drivers/STM32F7xx_HAL_Driver/Inc/stm32f7xx_ll_exti.h **** #define LL_EXTI_LINE_27                EXTI_IMR_IM27          /*!< Extended line 27 */
ARM GAS  /tmp/ccC8SZ8s.s 			page 8


 148:Drivers/STM32F7xx_HAL_Driver/Inc/stm32f7xx_ll_exti.h **** #endif
 149:Drivers/STM32F7xx_HAL_Driver/Inc/stm32f7xx_ll_exti.h **** #if defined(EXTI_IMR_IM28)
 150:Drivers/STM32F7xx_HAL_Driver/Inc/stm32f7xx_ll_exti.h **** #define LL_EXTI_LINE_28                EXTI_IMR_IM28          /*!< Extended line 28 */
 151:Drivers/STM32F7xx_HAL_Driver/Inc/stm32f7xx_ll_exti.h **** #endif
 152:Drivers/STM32F7xx_HAL_Driver/Inc/stm32f7xx_ll_exti.h **** #if defined(EXTI_IMR_IM29)
 153:Drivers/STM32F7xx_HAL_Driver/Inc/stm32f7xx_ll_exti.h **** #define LL_EXTI_LINE_29                EXTI_IMR_IM29          /*!< Extended line 29 */
 154:Drivers/STM32F7xx_HAL_Driver/Inc/stm32f7xx_ll_exti.h **** #endif
 155:Drivers/STM32F7xx_HAL_Driver/Inc/stm32f7xx_ll_exti.h **** #if defined(EXTI_IMR_IM30)
 156:Drivers/STM32F7xx_HAL_Driver/Inc/stm32f7xx_ll_exti.h **** #define LL_EXTI_LINE_30                EXTI_IMR_IM30          /*!< Extended line 30 */
 157:Drivers/STM32F7xx_HAL_Driver/Inc/stm32f7xx_ll_exti.h **** #endif
 158:Drivers/STM32F7xx_HAL_Driver/Inc/stm32f7xx_ll_exti.h **** #if defined(EXTI_IMR_IM31)
 159:Drivers/STM32F7xx_HAL_Driver/Inc/stm32f7xx_ll_exti.h **** #define LL_EXTI_LINE_31                EXTI_IMR_IM31          /*!< Extended line 31 */
 160:Drivers/STM32F7xx_HAL_Driver/Inc/stm32f7xx_ll_exti.h **** #endif
 161:Drivers/STM32F7xx_HAL_Driver/Inc/stm32f7xx_ll_exti.h **** #define LL_EXTI_LINE_ALL_0_31          EXTI_IMR_IM            /*!< All Extended line not reserved*/
 162:Drivers/STM32F7xx_HAL_Driver/Inc/stm32f7xx_ll_exti.h **** 
 163:Drivers/STM32F7xx_HAL_Driver/Inc/stm32f7xx_ll_exti.h **** 
 164:Drivers/STM32F7xx_HAL_Driver/Inc/stm32f7xx_ll_exti.h **** #define LL_EXTI_LINE_ALL               (0xFFFFFFFFU)  /*!< All Extended line */
 165:Drivers/STM32F7xx_HAL_Driver/Inc/stm32f7xx_ll_exti.h **** 
 166:Drivers/STM32F7xx_HAL_Driver/Inc/stm32f7xx_ll_exti.h **** #if defined(USE_FULL_LL_DRIVER)
 167:Drivers/STM32F7xx_HAL_Driver/Inc/stm32f7xx_ll_exti.h **** #define LL_EXTI_LINE_NONE              (0x00000000U)  /*!< None Extended line */
 168:Drivers/STM32F7xx_HAL_Driver/Inc/stm32f7xx_ll_exti.h **** #endif /*USE_FULL_LL_DRIVER*/
 169:Drivers/STM32F7xx_HAL_Driver/Inc/stm32f7xx_ll_exti.h **** 
 170:Drivers/STM32F7xx_HAL_Driver/Inc/stm32f7xx_ll_exti.h **** /**
 171:Drivers/STM32F7xx_HAL_Driver/Inc/stm32f7xx_ll_exti.h ****   * @}
 172:Drivers/STM32F7xx_HAL_Driver/Inc/stm32f7xx_ll_exti.h ****   */
 173:Drivers/STM32F7xx_HAL_Driver/Inc/stm32f7xx_ll_exti.h **** #if defined(USE_FULL_LL_DRIVER)
 174:Drivers/STM32F7xx_HAL_Driver/Inc/stm32f7xx_ll_exti.h **** 
 175:Drivers/STM32F7xx_HAL_Driver/Inc/stm32f7xx_ll_exti.h **** /** @defgroup EXTI_LL_EC_MODE Mode
 176:Drivers/STM32F7xx_HAL_Driver/Inc/stm32f7xx_ll_exti.h ****   * @{
 177:Drivers/STM32F7xx_HAL_Driver/Inc/stm32f7xx_ll_exti.h ****   */
 178:Drivers/STM32F7xx_HAL_Driver/Inc/stm32f7xx_ll_exti.h **** #define LL_EXTI_MODE_IT                 ((uint8_t)0x00U) /*!< Interrupt Mode */
 179:Drivers/STM32F7xx_HAL_Driver/Inc/stm32f7xx_ll_exti.h **** #define LL_EXTI_MODE_EVENT              ((uint8_t)0x01U) /*!< Event Mode */
 180:Drivers/STM32F7xx_HAL_Driver/Inc/stm32f7xx_ll_exti.h **** #define LL_EXTI_MODE_IT_EVENT           ((uint8_t)0x02U) /*!< Interrupt & Event Mode */
 181:Drivers/STM32F7xx_HAL_Driver/Inc/stm32f7xx_ll_exti.h **** /**
 182:Drivers/STM32F7xx_HAL_Driver/Inc/stm32f7xx_ll_exti.h ****   * @}
 183:Drivers/STM32F7xx_HAL_Driver/Inc/stm32f7xx_ll_exti.h ****   */
 184:Drivers/STM32F7xx_HAL_Driver/Inc/stm32f7xx_ll_exti.h **** 
 185:Drivers/STM32F7xx_HAL_Driver/Inc/stm32f7xx_ll_exti.h **** /** @defgroup EXTI_LL_EC_TRIGGER Edge Trigger
 186:Drivers/STM32F7xx_HAL_Driver/Inc/stm32f7xx_ll_exti.h ****   * @{
 187:Drivers/STM32F7xx_HAL_Driver/Inc/stm32f7xx_ll_exti.h ****   */
 188:Drivers/STM32F7xx_HAL_Driver/Inc/stm32f7xx_ll_exti.h **** #define LL_EXTI_TRIGGER_NONE            ((uint8_t)0x00U) /*!< No Trigger Mode */
 189:Drivers/STM32F7xx_HAL_Driver/Inc/stm32f7xx_ll_exti.h **** #define LL_EXTI_TRIGGER_RISING          ((uint8_t)0x01U) /*!< Trigger Rising Mode */
 190:Drivers/STM32F7xx_HAL_Driver/Inc/stm32f7xx_ll_exti.h **** #define LL_EXTI_TRIGGER_FALLING         ((uint8_t)0x02U) /*!< Trigger Falling Mode */
 191:Drivers/STM32F7xx_HAL_Driver/Inc/stm32f7xx_ll_exti.h **** #define LL_EXTI_TRIGGER_RISING_FALLING  ((uint8_t)0x03U) /*!< Trigger Rising & Falling Mode */
 192:Drivers/STM32F7xx_HAL_Driver/Inc/stm32f7xx_ll_exti.h **** 
 193:Drivers/STM32F7xx_HAL_Driver/Inc/stm32f7xx_ll_exti.h **** /**
 194:Drivers/STM32F7xx_HAL_Driver/Inc/stm32f7xx_ll_exti.h ****   * @}
 195:Drivers/STM32F7xx_HAL_Driver/Inc/stm32f7xx_ll_exti.h ****   */
 196:Drivers/STM32F7xx_HAL_Driver/Inc/stm32f7xx_ll_exti.h **** 
 197:Drivers/STM32F7xx_HAL_Driver/Inc/stm32f7xx_ll_exti.h **** 
 198:Drivers/STM32F7xx_HAL_Driver/Inc/stm32f7xx_ll_exti.h **** #endif /*USE_FULL_LL_DRIVER*/
 199:Drivers/STM32F7xx_HAL_Driver/Inc/stm32f7xx_ll_exti.h **** 
 200:Drivers/STM32F7xx_HAL_Driver/Inc/stm32f7xx_ll_exti.h **** 
 201:Drivers/STM32F7xx_HAL_Driver/Inc/stm32f7xx_ll_exti.h **** /**
 202:Drivers/STM32F7xx_HAL_Driver/Inc/stm32f7xx_ll_exti.h ****   * @}
 203:Drivers/STM32F7xx_HAL_Driver/Inc/stm32f7xx_ll_exti.h ****   */
 204:Drivers/STM32F7xx_HAL_Driver/Inc/stm32f7xx_ll_exti.h **** 
ARM GAS  /tmp/ccC8SZ8s.s 			page 9


 205:Drivers/STM32F7xx_HAL_Driver/Inc/stm32f7xx_ll_exti.h **** /* Exported macro ------------------------------------------------------------*/
 206:Drivers/STM32F7xx_HAL_Driver/Inc/stm32f7xx_ll_exti.h **** /** @defgroup EXTI_LL_Exported_Macros EXTI Exported Macros
 207:Drivers/STM32F7xx_HAL_Driver/Inc/stm32f7xx_ll_exti.h ****   * @{
 208:Drivers/STM32F7xx_HAL_Driver/Inc/stm32f7xx_ll_exti.h ****   */
 209:Drivers/STM32F7xx_HAL_Driver/Inc/stm32f7xx_ll_exti.h **** 
 210:Drivers/STM32F7xx_HAL_Driver/Inc/stm32f7xx_ll_exti.h **** /** @defgroup EXTI_LL_EM_WRITE_READ Common Write and read registers Macros
 211:Drivers/STM32F7xx_HAL_Driver/Inc/stm32f7xx_ll_exti.h ****   * @{
 212:Drivers/STM32F7xx_HAL_Driver/Inc/stm32f7xx_ll_exti.h ****   */
 213:Drivers/STM32F7xx_HAL_Driver/Inc/stm32f7xx_ll_exti.h **** 
 214:Drivers/STM32F7xx_HAL_Driver/Inc/stm32f7xx_ll_exti.h **** /**
 215:Drivers/STM32F7xx_HAL_Driver/Inc/stm32f7xx_ll_exti.h ****   * @brief  Write a value in EXTI register
 216:Drivers/STM32F7xx_HAL_Driver/Inc/stm32f7xx_ll_exti.h ****   * @param  __REG__ Register to be written
 217:Drivers/STM32F7xx_HAL_Driver/Inc/stm32f7xx_ll_exti.h ****   * @param  __VALUE__ Value to be written in the register
 218:Drivers/STM32F7xx_HAL_Driver/Inc/stm32f7xx_ll_exti.h ****   * @retval None
 219:Drivers/STM32F7xx_HAL_Driver/Inc/stm32f7xx_ll_exti.h ****   */
 220:Drivers/STM32F7xx_HAL_Driver/Inc/stm32f7xx_ll_exti.h **** #define LL_EXTI_WriteReg(__REG__, __VALUE__) WRITE_REG(EXTI->__REG__, (__VALUE__))
 221:Drivers/STM32F7xx_HAL_Driver/Inc/stm32f7xx_ll_exti.h **** 
 222:Drivers/STM32F7xx_HAL_Driver/Inc/stm32f7xx_ll_exti.h **** /**
 223:Drivers/STM32F7xx_HAL_Driver/Inc/stm32f7xx_ll_exti.h ****   * @brief  Read a value in EXTI register
 224:Drivers/STM32F7xx_HAL_Driver/Inc/stm32f7xx_ll_exti.h ****   * @param  __REG__ Register to be read
 225:Drivers/STM32F7xx_HAL_Driver/Inc/stm32f7xx_ll_exti.h ****   * @retval Register value
 226:Drivers/STM32F7xx_HAL_Driver/Inc/stm32f7xx_ll_exti.h ****   */
 227:Drivers/STM32F7xx_HAL_Driver/Inc/stm32f7xx_ll_exti.h **** #define LL_EXTI_ReadReg(__REG__) READ_REG(EXTI->__REG__)
 228:Drivers/STM32F7xx_HAL_Driver/Inc/stm32f7xx_ll_exti.h **** /**
 229:Drivers/STM32F7xx_HAL_Driver/Inc/stm32f7xx_ll_exti.h ****   * @}
 230:Drivers/STM32F7xx_HAL_Driver/Inc/stm32f7xx_ll_exti.h ****   */
 231:Drivers/STM32F7xx_HAL_Driver/Inc/stm32f7xx_ll_exti.h **** 
 232:Drivers/STM32F7xx_HAL_Driver/Inc/stm32f7xx_ll_exti.h **** 
 233:Drivers/STM32F7xx_HAL_Driver/Inc/stm32f7xx_ll_exti.h **** /**
 234:Drivers/STM32F7xx_HAL_Driver/Inc/stm32f7xx_ll_exti.h ****   * @}
 235:Drivers/STM32F7xx_HAL_Driver/Inc/stm32f7xx_ll_exti.h ****   */
 236:Drivers/STM32F7xx_HAL_Driver/Inc/stm32f7xx_ll_exti.h **** 
 237:Drivers/STM32F7xx_HAL_Driver/Inc/stm32f7xx_ll_exti.h **** 
 238:Drivers/STM32F7xx_HAL_Driver/Inc/stm32f7xx_ll_exti.h **** 
 239:Drivers/STM32F7xx_HAL_Driver/Inc/stm32f7xx_ll_exti.h **** /* Exported functions --------------------------------------------------------*/
 240:Drivers/STM32F7xx_HAL_Driver/Inc/stm32f7xx_ll_exti.h **** /** @defgroup EXTI_LL_Exported_Functions EXTI Exported Functions
 241:Drivers/STM32F7xx_HAL_Driver/Inc/stm32f7xx_ll_exti.h ****  * @{
 242:Drivers/STM32F7xx_HAL_Driver/Inc/stm32f7xx_ll_exti.h ****  */
 243:Drivers/STM32F7xx_HAL_Driver/Inc/stm32f7xx_ll_exti.h **** /** @defgroup EXTI_LL_EF_IT_Management IT_Management
 244:Drivers/STM32F7xx_HAL_Driver/Inc/stm32f7xx_ll_exti.h ****   * @{
 245:Drivers/STM32F7xx_HAL_Driver/Inc/stm32f7xx_ll_exti.h ****   */
 246:Drivers/STM32F7xx_HAL_Driver/Inc/stm32f7xx_ll_exti.h **** 
 247:Drivers/STM32F7xx_HAL_Driver/Inc/stm32f7xx_ll_exti.h **** /**
 248:Drivers/STM32F7xx_HAL_Driver/Inc/stm32f7xx_ll_exti.h ****   * @brief  Enable ExtiLine Interrupt request for Lines in range 0 to 31
 249:Drivers/STM32F7xx_HAL_Driver/Inc/stm32f7xx_ll_exti.h ****   * @note The reset value for the direct or internal lines (see RM)
 250:Drivers/STM32F7xx_HAL_Driver/Inc/stm32f7xx_ll_exti.h ****   *       is set to 1 in order to enable the interrupt by default.
 251:Drivers/STM32F7xx_HAL_Driver/Inc/stm32f7xx_ll_exti.h ****   *       Bits are set automatically at Power on.
 252:Drivers/STM32F7xx_HAL_Driver/Inc/stm32f7xx_ll_exti.h ****   * @rmtoll IMR         IMx           LL_EXTI_EnableIT_0_31
 253:Drivers/STM32F7xx_HAL_Driver/Inc/stm32f7xx_ll_exti.h ****   * @param  ExtiLine This parameter can be one of the following values:
 254:Drivers/STM32F7xx_HAL_Driver/Inc/stm32f7xx_ll_exti.h ****   *         @arg @ref LL_EXTI_LINE_0
 255:Drivers/STM32F7xx_HAL_Driver/Inc/stm32f7xx_ll_exti.h ****   *         @arg @ref LL_EXTI_LINE_1
 256:Drivers/STM32F7xx_HAL_Driver/Inc/stm32f7xx_ll_exti.h ****   *         @arg @ref LL_EXTI_LINE_2
 257:Drivers/STM32F7xx_HAL_Driver/Inc/stm32f7xx_ll_exti.h ****   *         @arg @ref LL_EXTI_LINE_3
 258:Drivers/STM32F7xx_HAL_Driver/Inc/stm32f7xx_ll_exti.h ****   *         @arg @ref LL_EXTI_LINE_4
 259:Drivers/STM32F7xx_HAL_Driver/Inc/stm32f7xx_ll_exti.h ****   *         @arg @ref LL_EXTI_LINE_5
 260:Drivers/STM32F7xx_HAL_Driver/Inc/stm32f7xx_ll_exti.h ****   *         @arg @ref LL_EXTI_LINE_6
 261:Drivers/STM32F7xx_HAL_Driver/Inc/stm32f7xx_ll_exti.h ****   *         @arg @ref LL_EXTI_LINE_7
ARM GAS  /tmp/ccC8SZ8s.s 			page 10


 262:Drivers/STM32F7xx_HAL_Driver/Inc/stm32f7xx_ll_exti.h ****   *         @arg @ref LL_EXTI_LINE_8
 263:Drivers/STM32F7xx_HAL_Driver/Inc/stm32f7xx_ll_exti.h ****   *         @arg @ref LL_EXTI_LINE_9
 264:Drivers/STM32F7xx_HAL_Driver/Inc/stm32f7xx_ll_exti.h ****   *         @arg @ref LL_EXTI_LINE_10
 265:Drivers/STM32F7xx_HAL_Driver/Inc/stm32f7xx_ll_exti.h ****   *         @arg @ref LL_EXTI_LINE_11
 266:Drivers/STM32F7xx_HAL_Driver/Inc/stm32f7xx_ll_exti.h ****   *         @arg @ref LL_EXTI_LINE_12
 267:Drivers/STM32F7xx_HAL_Driver/Inc/stm32f7xx_ll_exti.h ****   *         @arg @ref LL_EXTI_LINE_13
 268:Drivers/STM32F7xx_HAL_Driver/Inc/stm32f7xx_ll_exti.h ****   *         @arg @ref LL_EXTI_LINE_14
 269:Drivers/STM32F7xx_HAL_Driver/Inc/stm32f7xx_ll_exti.h ****   *         @arg @ref LL_EXTI_LINE_15
 270:Drivers/STM32F7xx_HAL_Driver/Inc/stm32f7xx_ll_exti.h ****   *         @arg @ref LL_EXTI_LINE_16
 271:Drivers/STM32F7xx_HAL_Driver/Inc/stm32f7xx_ll_exti.h ****   *         @arg @ref LL_EXTI_LINE_17
 272:Drivers/STM32F7xx_HAL_Driver/Inc/stm32f7xx_ll_exti.h ****   *         @arg @ref LL_EXTI_LINE_18
 273:Drivers/STM32F7xx_HAL_Driver/Inc/stm32f7xx_ll_exti.h ****   *         @arg @ref LL_EXTI_LINE_19
 274:Drivers/STM32F7xx_HAL_Driver/Inc/stm32f7xx_ll_exti.h ****   *         @arg @ref LL_EXTI_LINE_20
 275:Drivers/STM32F7xx_HAL_Driver/Inc/stm32f7xx_ll_exti.h ****   *         @arg @ref LL_EXTI_LINE_21
 276:Drivers/STM32F7xx_HAL_Driver/Inc/stm32f7xx_ll_exti.h ****   *         @arg @ref LL_EXTI_LINE_22
 277:Drivers/STM32F7xx_HAL_Driver/Inc/stm32f7xx_ll_exti.h ****   *         @arg @ref LL_EXTI_LINE_23
 278:Drivers/STM32F7xx_HAL_Driver/Inc/stm32f7xx_ll_exti.h ****   *         @arg @ref LL_EXTI_LINE_24(*)
 279:Drivers/STM32F7xx_HAL_Driver/Inc/stm32f7xx_ll_exti.h ****   *         @arg @ref LL_EXTI_LINE_ALL_0_31
 280:Drivers/STM32F7xx_HAL_Driver/Inc/stm32f7xx_ll_exti.h ****   * @note   (*): Available in some devices
 281:Drivers/STM32F7xx_HAL_Driver/Inc/stm32f7xx_ll_exti.h ****   * @note   Please check each device line mapping for EXTI Line availability
 282:Drivers/STM32F7xx_HAL_Driver/Inc/stm32f7xx_ll_exti.h ****   * @retval None
 283:Drivers/STM32F7xx_HAL_Driver/Inc/stm32f7xx_ll_exti.h ****   */
 284:Drivers/STM32F7xx_HAL_Driver/Inc/stm32f7xx_ll_exti.h **** __STATIC_INLINE void LL_EXTI_EnableIT_0_31(uint32_t ExtiLine)
 285:Drivers/STM32F7xx_HAL_Driver/Inc/stm32f7xx_ll_exti.h **** {
 286:Drivers/STM32F7xx_HAL_Driver/Inc/stm32f7xx_ll_exti.h ****   SET_BIT(EXTI->IMR, ExtiLine);
 287:Drivers/STM32F7xx_HAL_Driver/Inc/stm32f7xx_ll_exti.h **** }
 288:Drivers/STM32F7xx_HAL_Driver/Inc/stm32f7xx_ll_exti.h **** 
 289:Drivers/STM32F7xx_HAL_Driver/Inc/stm32f7xx_ll_exti.h **** /**
 290:Drivers/STM32F7xx_HAL_Driver/Inc/stm32f7xx_ll_exti.h ****   * @brief  Disable ExtiLine Interrupt request for Lines in range 0 to 31
 291:Drivers/STM32F7xx_HAL_Driver/Inc/stm32f7xx_ll_exti.h ****   * @note The reset value for the direct or internal lines (see RM)
 292:Drivers/STM32F7xx_HAL_Driver/Inc/stm32f7xx_ll_exti.h ****   *       is set to 1 in order to enable the interrupt by default.
 293:Drivers/STM32F7xx_HAL_Driver/Inc/stm32f7xx_ll_exti.h ****   *       Bits are set automatically at Power on.
 294:Drivers/STM32F7xx_HAL_Driver/Inc/stm32f7xx_ll_exti.h ****   * @rmtoll IMR         IMx           LL_EXTI_DisableIT_0_31
 295:Drivers/STM32F7xx_HAL_Driver/Inc/stm32f7xx_ll_exti.h ****   * @param  ExtiLine This parameter can be one of the following values:
 296:Drivers/STM32F7xx_HAL_Driver/Inc/stm32f7xx_ll_exti.h ****   *         @arg @ref LL_EXTI_LINE_0
 297:Drivers/STM32F7xx_HAL_Driver/Inc/stm32f7xx_ll_exti.h ****   *         @arg @ref LL_EXTI_LINE_1
 298:Drivers/STM32F7xx_HAL_Driver/Inc/stm32f7xx_ll_exti.h ****   *         @arg @ref LL_EXTI_LINE_2
 299:Drivers/STM32F7xx_HAL_Driver/Inc/stm32f7xx_ll_exti.h ****   *         @arg @ref LL_EXTI_LINE_3
 300:Drivers/STM32F7xx_HAL_Driver/Inc/stm32f7xx_ll_exti.h ****   *         @arg @ref LL_EXTI_LINE_4
 301:Drivers/STM32F7xx_HAL_Driver/Inc/stm32f7xx_ll_exti.h ****   *         @arg @ref LL_EXTI_LINE_5
 302:Drivers/STM32F7xx_HAL_Driver/Inc/stm32f7xx_ll_exti.h ****   *         @arg @ref LL_EXTI_LINE_6
 303:Drivers/STM32F7xx_HAL_Driver/Inc/stm32f7xx_ll_exti.h ****   *         @arg @ref LL_EXTI_LINE_7
 304:Drivers/STM32F7xx_HAL_Driver/Inc/stm32f7xx_ll_exti.h ****   *         @arg @ref LL_EXTI_LINE_8
 305:Drivers/STM32F7xx_HAL_Driver/Inc/stm32f7xx_ll_exti.h ****   *         @arg @ref LL_EXTI_LINE_9
 306:Drivers/STM32F7xx_HAL_Driver/Inc/stm32f7xx_ll_exti.h ****   *         @arg @ref LL_EXTI_LINE_10
 307:Drivers/STM32F7xx_HAL_Driver/Inc/stm32f7xx_ll_exti.h ****   *         @arg @ref LL_EXTI_LINE_11
 308:Drivers/STM32F7xx_HAL_Driver/Inc/stm32f7xx_ll_exti.h ****   *         @arg @ref LL_EXTI_LINE_12
 309:Drivers/STM32F7xx_HAL_Driver/Inc/stm32f7xx_ll_exti.h ****   *         @arg @ref LL_EXTI_LINE_13
 310:Drivers/STM32F7xx_HAL_Driver/Inc/stm32f7xx_ll_exti.h ****   *         @arg @ref LL_EXTI_LINE_14
 311:Drivers/STM32F7xx_HAL_Driver/Inc/stm32f7xx_ll_exti.h ****   *         @arg @ref LL_EXTI_LINE_15
 312:Drivers/STM32F7xx_HAL_Driver/Inc/stm32f7xx_ll_exti.h ****   *         @arg @ref LL_EXTI_LINE_16
 313:Drivers/STM32F7xx_HAL_Driver/Inc/stm32f7xx_ll_exti.h ****   *         @arg @ref LL_EXTI_LINE_17
 314:Drivers/STM32F7xx_HAL_Driver/Inc/stm32f7xx_ll_exti.h ****   *         @arg @ref LL_EXTI_LINE_18
 315:Drivers/STM32F7xx_HAL_Driver/Inc/stm32f7xx_ll_exti.h ****   *         @arg @ref LL_EXTI_LINE_19
 316:Drivers/STM32F7xx_HAL_Driver/Inc/stm32f7xx_ll_exti.h ****   *         @arg @ref LL_EXTI_LINE_20
 317:Drivers/STM32F7xx_HAL_Driver/Inc/stm32f7xx_ll_exti.h ****   *         @arg @ref LL_EXTI_LINE_21
 318:Drivers/STM32F7xx_HAL_Driver/Inc/stm32f7xx_ll_exti.h ****   *         @arg @ref LL_EXTI_LINE_22
ARM GAS  /tmp/ccC8SZ8s.s 			page 11


 319:Drivers/STM32F7xx_HAL_Driver/Inc/stm32f7xx_ll_exti.h ****   *         @arg @ref LL_EXTI_LINE_23
 320:Drivers/STM32F7xx_HAL_Driver/Inc/stm32f7xx_ll_exti.h ****   *         @arg @ref LL_EXTI_LINE_24(*)
 321:Drivers/STM32F7xx_HAL_Driver/Inc/stm32f7xx_ll_exti.h ****   *         @arg @ref LL_EXTI_LINE_ALL_0_31
 322:Drivers/STM32F7xx_HAL_Driver/Inc/stm32f7xx_ll_exti.h ****   * @note   (*): Available in some devices
 323:Drivers/STM32F7xx_HAL_Driver/Inc/stm32f7xx_ll_exti.h ****   * @note   Please check each device line mapping for EXTI Line availability
 324:Drivers/STM32F7xx_HAL_Driver/Inc/stm32f7xx_ll_exti.h ****   * @retval None
 325:Drivers/STM32F7xx_HAL_Driver/Inc/stm32f7xx_ll_exti.h ****   */
 326:Drivers/STM32F7xx_HAL_Driver/Inc/stm32f7xx_ll_exti.h **** __STATIC_INLINE void LL_EXTI_DisableIT_0_31(uint32_t ExtiLine)
 327:Drivers/STM32F7xx_HAL_Driver/Inc/stm32f7xx_ll_exti.h **** {
 328:Drivers/STM32F7xx_HAL_Driver/Inc/stm32f7xx_ll_exti.h ****   CLEAR_BIT(EXTI->IMR, ExtiLine);
 329:Drivers/STM32F7xx_HAL_Driver/Inc/stm32f7xx_ll_exti.h **** }
 330:Drivers/STM32F7xx_HAL_Driver/Inc/stm32f7xx_ll_exti.h **** 
 331:Drivers/STM32F7xx_HAL_Driver/Inc/stm32f7xx_ll_exti.h **** 
 332:Drivers/STM32F7xx_HAL_Driver/Inc/stm32f7xx_ll_exti.h **** /**
 333:Drivers/STM32F7xx_HAL_Driver/Inc/stm32f7xx_ll_exti.h ****   * @brief  Indicate if ExtiLine Interrupt request is enabled for Lines in range 0 to 31
 334:Drivers/STM32F7xx_HAL_Driver/Inc/stm32f7xx_ll_exti.h ****   * @note The reset value for the direct or internal lines (see RM)
 335:Drivers/STM32F7xx_HAL_Driver/Inc/stm32f7xx_ll_exti.h ****   *       is set to 1 in order to enable the interrupt by default.
 336:Drivers/STM32F7xx_HAL_Driver/Inc/stm32f7xx_ll_exti.h ****   *       Bits are set automatically at Power on.
 337:Drivers/STM32F7xx_HAL_Driver/Inc/stm32f7xx_ll_exti.h ****   * @rmtoll IMR         IMx           LL_EXTI_IsEnabledIT_0_31
 338:Drivers/STM32F7xx_HAL_Driver/Inc/stm32f7xx_ll_exti.h ****   * @param  ExtiLine This parameter can be one of the following values:
 339:Drivers/STM32F7xx_HAL_Driver/Inc/stm32f7xx_ll_exti.h ****   *         @arg @ref LL_EXTI_LINE_0
 340:Drivers/STM32F7xx_HAL_Driver/Inc/stm32f7xx_ll_exti.h ****   *         @arg @ref LL_EXTI_LINE_1
 341:Drivers/STM32F7xx_HAL_Driver/Inc/stm32f7xx_ll_exti.h ****   *         @arg @ref LL_EXTI_LINE_2
 342:Drivers/STM32F7xx_HAL_Driver/Inc/stm32f7xx_ll_exti.h ****   *         @arg @ref LL_EXTI_LINE_3
 343:Drivers/STM32F7xx_HAL_Driver/Inc/stm32f7xx_ll_exti.h ****   *         @arg @ref LL_EXTI_LINE_4
 344:Drivers/STM32F7xx_HAL_Driver/Inc/stm32f7xx_ll_exti.h ****   *         @arg @ref LL_EXTI_LINE_5
 345:Drivers/STM32F7xx_HAL_Driver/Inc/stm32f7xx_ll_exti.h ****   *         @arg @ref LL_EXTI_LINE_6
 346:Drivers/STM32F7xx_HAL_Driver/Inc/stm32f7xx_ll_exti.h ****   *         @arg @ref LL_EXTI_LINE_7
 347:Drivers/STM32F7xx_HAL_Driver/Inc/stm32f7xx_ll_exti.h ****   *         @arg @ref LL_EXTI_LINE_8
 348:Drivers/STM32F7xx_HAL_Driver/Inc/stm32f7xx_ll_exti.h ****   *         @arg @ref LL_EXTI_LINE_9
 349:Drivers/STM32F7xx_HAL_Driver/Inc/stm32f7xx_ll_exti.h ****   *         @arg @ref LL_EXTI_LINE_10
 350:Drivers/STM32F7xx_HAL_Driver/Inc/stm32f7xx_ll_exti.h ****   *         @arg @ref LL_EXTI_LINE_11
 351:Drivers/STM32F7xx_HAL_Driver/Inc/stm32f7xx_ll_exti.h ****   *         @arg @ref LL_EXTI_LINE_12
 352:Drivers/STM32F7xx_HAL_Driver/Inc/stm32f7xx_ll_exti.h ****   *         @arg @ref LL_EXTI_LINE_13
 353:Drivers/STM32F7xx_HAL_Driver/Inc/stm32f7xx_ll_exti.h ****   *         @arg @ref LL_EXTI_LINE_14
 354:Drivers/STM32F7xx_HAL_Driver/Inc/stm32f7xx_ll_exti.h ****   *         @arg @ref LL_EXTI_LINE_15
 355:Drivers/STM32F7xx_HAL_Driver/Inc/stm32f7xx_ll_exti.h ****   *         @arg @ref LL_EXTI_LINE_16
 356:Drivers/STM32F7xx_HAL_Driver/Inc/stm32f7xx_ll_exti.h ****   *         @arg @ref LL_EXTI_LINE_17
 357:Drivers/STM32F7xx_HAL_Driver/Inc/stm32f7xx_ll_exti.h ****   *         @arg @ref LL_EXTI_LINE_18
 358:Drivers/STM32F7xx_HAL_Driver/Inc/stm32f7xx_ll_exti.h ****   *         @arg @ref LL_EXTI_LINE_19
 359:Drivers/STM32F7xx_HAL_Driver/Inc/stm32f7xx_ll_exti.h ****   *         @arg @ref LL_EXTI_LINE_20
 360:Drivers/STM32F7xx_HAL_Driver/Inc/stm32f7xx_ll_exti.h ****   *         @arg @ref LL_EXTI_LINE_21
 361:Drivers/STM32F7xx_HAL_Driver/Inc/stm32f7xx_ll_exti.h ****   *         @arg @ref LL_EXTI_LINE_22
 362:Drivers/STM32F7xx_HAL_Driver/Inc/stm32f7xx_ll_exti.h ****   *         @arg @ref LL_EXTI_LINE_23
 363:Drivers/STM32F7xx_HAL_Driver/Inc/stm32f7xx_ll_exti.h ****   *         @arg @ref LL_EXTI_LINE_24(*)
 364:Drivers/STM32F7xx_HAL_Driver/Inc/stm32f7xx_ll_exti.h ****   *         @arg @ref LL_EXTI_LINE_ALL_0_31
 365:Drivers/STM32F7xx_HAL_Driver/Inc/stm32f7xx_ll_exti.h ****   * @note   (*): Available in some devices
 366:Drivers/STM32F7xx_HAL_Driver/Inc/stm32f7xx_ll_exti.h ****   * @note   Please check each device line mapping for EXTI Line availability
 367:Drivers/STM32F7xx_HAL_Driver/Inc/stm32f7xx_ll_exti.h ****   * @retval State of bit (1 or 0).
 368:Drivers/STM32F7xx_HAL_Driver/Inc/stm32f7xx_ll_exti.h ****   */
 369:Drivers/STM32F7xx_HAL_Driver/Inc/stm32f7xx_ll_exti.h **** __STATIC_INLINE uint32_t LL_EXTI_IsEnabledIT_0_31(uint32_t ExtiLine)
 370:Drivers/STM32F7xx_HAL_Driver/Inc/stm32f7xx_ll_exti.h **** {
 371:Drivers/STM32F7xx_HAL_Driver/Inc/stm32f7xx_ll_exti.h ****   return (READ_BIT(EXTI->IMR, ExtiLine) == (ExtiLine));
 372:Drivers/STM32F7xx_HAL_Driver/Inc/stm32f7xx_ll_exti.h **** }
 373:Drivers/STM32F7xx_HAL_Driver/Inc/stm32f7xx_ll_exti.h **** 
 374:Drivers/STM32F7xx_HAL_Driver/Inc/stm32f7xx_ll_exti.h **** 
 375:Drivers/STM32F7xx_HAL_Driver/Inc/stm32f7xx_ll_exti.h **** /**
ARM GAS  /tmp/ccC8SZ8s.s 			page 12


 376:Drivers/STM32F7xx_HAL_Driver/Inc/stm32f7xx_ll_exti.h ****   * @}
 377:Drivers/STM32F7xx_HAL_Driver/Inc/stm32f7xx_ll_exti.h ****   */
 378:Drivers/STM32F7xx_HAL_Driver/Inc/stm32f7xx_ll_exti.h **** 
 379:Drivers/STM32F7xx_HAL_Driver/Inc/stm32f7xx_ll_exti.h **** /** @defgroup EXTI_LL_EF_Event_Management Event_Management
 380:Drivers/STM32F7xx_HAL_Driver/Inc/stm32f7xx_ll_exti.h ****   * @{
 381:Drivers/STM32F7xx_HAL_Driver/Inc/stm32f7xx_ll_exti.h ****   */
 382:Drivers/STM32F7xx_HAL_Driver/Inc/stm32f7xx_ll_exti.h **** 
 383:Drivers/STM32F7xx_HAL_Driver/Inc/stm32f7xx_ll_exti.h **** /**
 384:Drivers/STM32F7xx_HAL_Driver/Inc/stm32f7xx_ll_exti.h ****   * @brief  Enable ExtiLine Event request for Lines in range 0 to 31
 385:Drivers/STM32F7xx_HAL_Driver/Inc/stm32f7xx_ll_exti.h ****   * @rmtoll EMR         EMx           LL_EXTI_EnableEvent_0_31
 386:Drivers/STM32F7xx_HAL_Driver/Inc/stm32f7xx_ll_exti.h ****   * @param  ExtiLine This parameter can be one of the following values:
 387:Drivers/STM32F7xx_HAL_Driver/Inc/stm32f7xx_ll_exti.h ****   *         @arg @ref LL_EXTI_LINE_0
 388:Drivers/STM32F7xx_HAL_Driver/Inc/stm32f7xx_ll_exti.h ****   *         @arg @ref LL_EXTI_LINE_1
 389:Drivers/STM32F7xx_HAL_Driver/Inc/stm32f7xx_ll_exti.h ****   *         @arg @ref LL_EXTI_LINE_2
 390:Drivers/STM32F7xx_HAL_Driver/Inc/stm32f7xx_ll_exti.h ****   *         @arg @ref LL_EXTI_LINE_3
 391:Drivers/STM32F7xx_HAL_Driver/Inc/stm32f7xx_ll_exti.h ****   *         @arg @ref LL_EXTI_LINE_4
 392:Drivers/STM32F7xx_HAL_Driver/Inc/stm32f7xx_ll_exti.h ****   *         @arg @ref LL_EXTI_LINE_5
 393:Drivers/STM32F7xx_HAL_Driver/Inc/stm32f7xx_ll_exti.h ****   *         @arg @ref LL_EXTI_LINE_6
 394:Drivers/STM32F7xx_HAL_Driver/Inc/stm32f7xx_ll_exti.h ****   *         @arg @ref LL_EXTI_LINE_7
 395:Drivers/STM32F7xx_HAL_Driver/Inc/stm32f7xx_ll_exti.h ****   *         @arg @ref LL_EXTI_LINE_8
 396:Drivers/STM32F7xx_HAL_Driver/Inc/stm32f7xx_ll_exti.h ****   *         @arg @ref LL_EXTI_LINE_9
 397:Drivers/STM32F7xx_HAL_Driver/Inc/stm32f7xx_ll_exti.h ****   *         @arg @ref LL_EXTI_LINE_10
 398:Drivers/STM32F7xx_HAL_Driver/Inc/stm32f7xx_ll_exti.h ****   *         @arg @ref LL_EXTI_LINE_11
 399:Drivers/STM32F7xx_HAL_Driver/Inc/stm32f7xx_ll_exti.h ****   *         @arg @ref LL_EXTI_LINE_12
 400:Drivers/STM32F7xx_HAL_Driver/Inc/stm32f7xx_ll_exti.h ****   *         @arg @ref LL_EXTI_LINE_13
 401:Drivers/STM32F7xx_HAL_Driver/Inc/stm32f7xx_ll_exti.h ****   *         @arg @ref LL_EXTI_LINE_14
 402:Drivers/STM32F7xx_HAL_Driver/Inc/stm32f7xx_ll_exti.h ****   *         @arg @ref LL_EXTI_LINE_15
 403:Drivers/STM32F7xx_HAL_Driver/Inc/stm32f7xx_ll_exti.h ****   *         @arg @ref LL_EXTI_LINE_16
 404:Drivers/STM32F7xx_HAL_Driver/Inc/stm32f7xx_ll_exti.h ****   *         @arg @ref LL_EXTI_LINE_17
 405:Drivers/STM32F7xx_HAL_Driver/Inc/stm32f7xx_ll_exti.h ****   *         @arg @ref LL_EXTI_LINE_18
 406:Drivers/STM32F7xx_HAL_Driver/Inc/stm32f7xx_ll_exti.h ****   *         @arg @ref LL_EXTI_LINE_19
 407:Drivers/STM32F7xx_HAL_Driver/Inc/stm32f7xx_ll_exti.h ****   *         @arg @ref LL_EXTI_LINE_20
 408:Drivers/STM32F7xx_HAL_Driver/Inc/stm32f7xx_ll_exti.h ****   *         @arg @ref LL_EXTI_LINE_21
 409:Drivers/STM32F7xx_HAL_Driver/Inc/stm32f7xx_ll_exti.h ****   *         @arg @ref LL_EXTI_LINE_22
 410:Drivers/STM32F7xx_HAL_Driver/Inc/stm32f7xx_ll_exti.h ****   *         @arg @ref LL_EXTI_LINE_23
 411:Drivers/STM32F7xx_HAL_Driver/Inc/stm32f7xx_ll_exti.h ****   *         @arg @ref LL_EXTI_LINE_24(*)
 412:Drivers/STM32F7xx_HAL_Driver/Inc/stm32f7xx_ll_exti.h ****   *         @arg @ref LL_EXTI_LINE_ALL_0_31
 413:Drivers/STM32F7xx_HAL_Driver/Inc/stm32f7xx_ll_exti.h ****   * @note   (*): Available in some devices
 414:Drivers/STM32F7xx_HAL_Driver/Inc/stm32f7xx_ll_exti.h ****   * @note   Please check each device line mapping for EXTI Line availability
 415:Drivers/STM32F7xx_HAL_Driver/Inc/stm32f7xx_ll_exti.h ****   * @retval None
 416:Drivers/STM32F7xx_HAL_Driver/Inc/stm32f7xx_ll_exti.h ****   */
 417:Drivers/STM32F7xx_HAL_Driver/Inc/stm32f7xx_ll_exti.h **** __STATIC_INLINE void LL_EXTI_EnableEvent_0_31(uint32_t ExtiLine)
 418:Drivers/STM32F7xx_HAL_Driver/Inc/stm32f7xx_ll_exti.h **** {
 419:Drivers/STM32F7xx_HAL_Driver/Inc/stm32f7xx_ll_exti.h ****   SET_BIT(EXTI->EMR, ExtiLine);
 420:Drivers/STM32F7xx_HAL_Driver/Inc/stm32f7xx_ll_exti.h **** 
 421:Drivers/STM32F7xx_HAL_Driver/Inc/stm32f7xx_ll_exti.h **** }
 422:Drivers/STM32F7xx_HAL_Driver/Inc/stm32f7xx_ll_exti.h **** 
 423:Drivers/STM32F7xx_HAL_Driver/Inc/stm32f7xx_ll_exti.h **** 
 424:Drivers/STM32F7xx_HAL_Driver/Inc/stm32f7xx_ll_exti.h **** /**
 425:Drivers/STM32F7xx_HAL_Driver/Inc/stm32f7xx_ll_exti.h ****   * @brief  Disable ExtiLine Event request for Lines in range 0 to 31
 426:Drivers/STM32F7xx_HAL_Driver/Inc/stm32f7xx_ll_exti.h ****   * @rmtoll EMR         EMx           LL_EXTI_DisableEvent_0_31
 427:Drivers/STM32F7xx_HAL_Driver/Inc/stm32f7xx_ll_exti.h ****   * @param  ExtiLine This parameter can be one of the following values:
 428:Drivers/STM32F7xx_HAL_Driver/Inc/stm32f7xx_ll_exti.h ****   *         @arg @ref LL_EXTI_LINE_0
 429:Drivers/STM32F7xx_HAL_Driver/Inc/stm32f7xx_ll_exti.h ****   *         @arg @ref LL_EXTI_LINE_1
 430:Drivers/STM32F7xx_HAL_Driver/Inc/stm32f7xx_ll_exti.h ****   *         @arg @ref LL_EXTI_LINE_2
 431:Drivers/STM32F7xx_HAL_Driver/Inc/stm32f7xx_ll_exti.h ****   *         @arg @ref LL_EXTI_LINE_3
 432:Drivers/STM32F7xx_HAL_Driver/Inc/stm32f7xx_ll_exti.h ****   *         @arg @ref LL_EXTI_LINE_4
ARM GAS  /tmp/ccC8SZ8s.s 			page 13


 433:Drivers/STM32F7xx_HAL_Driver/Inc/stm32f7xx_ll_exti.h ****   *         @arg @ref LL_EXTI_LINE_5
 434:Drivers/STM32F7xx_HAL_Driver/Inc/stm32f7xx_ll_exti.h ****   *         @arg @ref LL_EXTI_LINE_6
 435:Drivers/STM32F7xx_HAL_Driver/Inc/stm32f7xx_ll_exti.h ****   *         @arg @ref LL_EXTI_LINE_7
 436:Drivers/STM32F7xx_HAL_Driver/Inc/stm32f7xx_ll_exti.h ****   *         @arg @ref LL_EXTI_LINE_8
 437:Drivers/STM32F7xx_HAL_Driver/Inc/stm32f7xx_ll_exti.h ****   *         @arg @ref LL_EXTI_LINE_9
 438:Drivers/STM32F7xx_HAL_Driver/Inc/stm32f7xx_ll_exti.h ****   *         @arg @ref LL_EXTI_LINE_10
 439:Drivers/STM32F7xx_HAL_Driver/Inc/stm32f7xx_ll_exti.h ****   *         @arg @ref LL_EXTI_LINE_11
 440:Drivers/STM32F7xx_HAL_Driver/Inc/stm32f7xx_ll_exti.h ****   *         @arg @ref LL_EXTI_LINE_12
 441:Drivers/STM32F7xx_HAL_Driver/Inc/stm32f7xx_ll_exti.h ****   *         @arg @ref LL_EXTI_LINE_13
 442:Drivers/STM32F7xx_HAL_Driver/Inc/stm32f7xx_ll_exti.h ****   *         @arg @ref LL_EXTI_LINE_14
 443:Drivers/STM32F7xx_HAL_Driver/Inc/stm32f7xx_ll_exti.h ****   *         @arg @ref LL_EXTI_LINE_15
 444:Drivers/STM32F7xx_HAL_Driver/Inc/stm32f7xx_ll_exti.h ****   *         @arg @ref LL_EXTI_LINE_16
 445:Drivers/STM32F7xx_HAL_Driver/Inc/stm32f7xx_ll_exti.h ****   *         @arg @ref LL_EXTI_LINE_17
 446:Drivers/STM32F7xx_HAL_Driver/Inc/stm32f7xx_ll_exti.h ****   *         @arg @ref LL_EXTI_LINE_18
 447:Drivers/STM32F7xx_HAL_Driver/Inc/stm32f7xx_ll_exti.h ****   *         @arg @ref LL_EXTI_LINE_19
 448:Drivers/STM32F7xx_HAL_Driver/Inc/stm32f7xx_ll_exti.h ****   *         @arg @ref LL_EXTI_LINE_20
 449:Drivers/STM32F7xx_HAL_Driver/Inc/stm32f7xx_ll_exti.h ****   *         @arg @ref LL_EXTI_LINE_21
 450:Drivers/STM32F7xx_HAL_Driver/Inc/stm32f7xx_ll_exti.h ****   *         @arg @ref LL_EXTI_LINE_22
 451:Drivers/STM32F7xx_HAL_Driver/Inc/stm32f7xx_ll_exti.h ****   *         @arg @ref LL_EXTI_LINE_23
 452:Drivers/STM32F7xx_HAL_Driver/Inc/stm32f7xx_ll_exti.h ****   *         @arg @ref LL_EXTI_LINE_24(*)
 453:Drivers/STM32F7xx_HAL_Driver/Inc/stm32f7xx_ll_exti.h ****   *         @arg @ref LL_EXTI_LINE_ALL_0_31
 454:Drivers/STM32F7xx_HAL_Driver/Inc/stm32f7xx_ll_exti.h ****   * @note   (*): Available in some devices
 455:Drivers/STM32F7xx_HAL_Driver/Inc/stm32f7xx_ll_exti.h ****   * @note   Please check each device line mapping for EXTI Line availability
 456:Drivers/STM32F7xx_HAL_Driver/Inc/stm32f7xx_ll_exti.h ****   * @retval None
 457:Drivers/STM32F7xx_HAL_Driver/Inc/stm32f7xx_ll_exti.h ****   */
 458:Drivers/STM32F7xx_HAL_Driver/Inc/stm32f7xx_ll_exti.h **** __STATIC_INLINE void LL_EXTI_DisableEvent_0_31(uint32_t ExtiLine)
 459:Drivers/STM32F7xx_HAL_Driver/Inc/stm32f7xx_ll_exti.h **** {
 460:Drivers/STM32F7xx_HAL_Driver/Inc/stm32f7xx_ll_exti.h ****   CLEAR_BIT(EXTI->EMR, ExtiLine);
  99              		.loc 2 460 0
 100 001e 2E49     		ldr	r1, .L24
 101 0020 4868     		ldr	r0, [r1, #4]
 102              	.LVL4:
 103 0022 20EA0202 		bic	r2, r0, r2
 104              	.LVL5:
 105 0026 4A60     		str	r2, [r1, #4]
 106              	.LVL6:
 107              	.LBE31:
 108              	.LBE30:
 143:Drivers/STM32F7xx_HAL_Driver/Src/stm32f7xx_ll_exti.c ****           break;
 109              		.loc 1 143 0
 110 0028 1A68     		ldr	r2, [r3]
 111              	.LVL7:
 112              	.LBB32:
 113              	.LBB33:
 286:Drivers/STM32F7xx_HAL_Driver/Inc/stm32f7xx_ll_exti.h **** }
 114              		.loc 2 286 0
 115 002a 0868     		ldr	r0, [r1]
 116 002c 0243     		orrs	r2, r2, r0
 117              	.LVL8:
 118 002e 0A60     		str	r2, [r1]
 119              	.LVL9:
 120              	.LBE33:
 121              	.LBE32:
 123:Drivers/STM32F7xx_HAL_Driver/Src/stm32f7xx_ll_exti.c ****   /* Check the parameters */
 122              		.loc 1 123 0
 123 0030 0120     		movs	r0, #1
 124              	.L7:
ARM GAS  /tmp/ccC8SZ8s.s 			page 14


 125              	.LVL10:
 158:Drivers/STM32F7xx_HAL_Driver/Src/stm32f7xx_ll_exti.c ****           break;
 159:Drivers/STM32F7xx_HAL_Driver/Src/stm32f7xx_ll_exti.c ****       }
 160:Drivers/STM32F7xx_HAL_Driver/Src/stm32f7xx_ll_exti.c ****       if (EXTI_InitStruct->Trigger != LL_EXTI_TRIGGER_NONE)
 126              		.loc 1 160 0
 127 0032 9A79     		ldrb	r2, [r3, #6]	@ zero_extendqisi2
 128 0034 002A     		cmp	r2, #0
 129 0036 4ED0     		beq	.L20
 122:Drivers/STM32F7xx_HAL_Driver/Src/stm32f7xx_ll_exti.c ****   ErrorStatus status = SUCCESS;
 130              		.loc 1 122 0
 131 0038 10B4     		push	{r4}
 132              	.LCFI0:
 133              		.cfi_def_cfa_offset 4
 134              		.cfi_offset 4, -4
 161:Drivers/STM32F7xx_HAL_Driver/Src/stm32f7xx_ll_exti.c ****       {
 162:Drivers/STM32F7xx_HAL_Driver/Src/stm32f7xx_ll_exti.c ****         switch (EXTI_InitStruct->Trigger)
 135              		.loc 1 162 0
 136 003a 022A     		cmp	r2, #2
 137 003c 27D0     		beq	.L11
 138 003e 032A     		cmp	r2, #3
 139 0040 30D0     		beq	.L12
 140 0042 012A     		cmp	r2, #1
 141 0044 18D0     		beq	.L23
 163:Drivers/STM32F7xx_HAL_Driver/Src/stm32f7xx_ll_exti.c ****         {
 164:Drivers/STM32F7xx_HAL_Driver/Src/stm32f7xx_ll_exti.c ****           case LL_EXTI_TRIGGER_RISING:
 165:Drivers/STM32F7xx_HAL_Driver/Src/stm32f7xx_ll_exti.c ****             /* First Disable Falling Trigger on provided Lines */
 166:Drivers/STM32F7xx_HAL_Driver/Src/stm32f7xx_ll_exti.c ****             LL_EXTI_DisableFallingTrig_0_31(EXTI_InitStruct->Line_0_31);
 167:Drivers/STM32F7xx_HAL_Driver/Src/stm32f7xx_ll_exti.c ****             /* Then Enable Rising Trigger on provided Lines */
 168:Drivers/STM32F7xx_HAL_Driver/Src/stm32f7xx_ll_exti.c ****             LL_EXTI_EnableRisingTrig_0_31(EXTI_InitStruct->Line_0_31);
 169:Drivers/STM32F7xx_HAL_Driver/Src/stm32f7xx_ll_exti.c ****             break;
 170:Drivers/STM32F7xx_HAL_Driver/Src/stm32f7xx_ll_exti.c ****           case LL_EXTI_TRIGGER_FALLING:
 171:Drivers/STM32F7xx_HAL_Driver/Src/stm32f7xx_ll_exti.c ****             /* First Disable Rising Trigger on provided Lines */
 172:Drivers/STM32F7xx_HAL_Driver/Src/stm32f7xx_ll_exti.c ****             LL_EXTI_DisableRisingTrig_0_31(EXTI_InitStruct->Line_0_31);
 173:Drivers/STM32F7xx_HAL_Driver/Src/stm32f7xx_ll_exti.c ****             /* Then Enable Falling Trigger on provided Lines */
 174:Drivers/STM32F7xx_HAL_Driver/Src/stm32f7xx_ll_exti.c ****             LL_EXTI_EnableFallingTrig_0_31(EXTI_InitStruct->Line_0_31);
 175:Drivers/STM32F7xx_HAL_Driver/Src/stm32f7xx_ll_exti.c ****             break;
 176:Drivers/STM32F7xx_HAL_Driver/Src/stm32f7xx_ll_exti.c ****           case LL_EXTI_TRIGGER_RISING_FALLING:
 177:Drivers/STM32F7xx_HAL_Driver/Src/stm32f7xx_ll_exti.c ****             LL_EXTI_EnableRisingTrig_0_31(EXTI_InitStruct->Line_0_31);
 178:Drivers/STM32F7xx_HAL_Driver/Src/stm32f7xx_ll_exti.c ****             LL_EXTI_EnableFallingTrig_0_31(EXTI_InitStruct->Line_0_31);
 179:Drivers/STM32F7xx_HAL_Driver/Src/stm32f7xx_ll_exti.c ****             break;
 180:Drivers/STM32F7xx_HAL_Driver/Src/stm32f7xx_ll_exti.c ****           default:
 181:Drivers/STM32F7xx_HAL_Driver/Src/stm32f7xx_ll_exti.c ****             status = ERROR;
 142              		.loc 1 181 0
 143 0046 0020     		movs	r0, #0
 144              	.LVL11:
 145              	.L6:
 182:Drivers/STM32F7xx_HAL_Driver/Src/stm32f7xx_ll_exti.c ****             break;
 183:Drivers/STM32F7xx_HAL_Driver/Src/stm32f7xx_ll_exti.c ****         }
 184:Drivers/STM32F7xx_HAL_Driver/Src/stm32f7xx_ll_exti.c ****       }
 185:Drivers/STM32F7xx_HAL_Driver/Src/stm32f7xx_ll_exti.c ****     }
 186:Drivers/STM32F7xx_HAL_Driver/Src/stm32f7xx_ll_exti.c ****   }
 187:Drivers/STM32F7xx_HAL_Driver/Src/stm32f7xx_ll_exti.c ****   /* DISABLE LineCommand */
 188:Drivers/STM32F7xx_HAL_Driver/Src/stm32f7xx_ll_exti.c ****   else
 189:Drivers/STM32F7xx_HAL_Driver/Src/stm32f7xx_ll_exti.c ****   {
 190:Drivers/STM32F7xx_HAL_Driver/Src/stm32f7xx_ll_exti.c ****     /* De-configure EXTI Lines in range from 0 to 31 */
 191:Drivers/STM32F7xx_HAL_Driver/Src/stm32f7xx_ll_exti.c ****     LL_EXTI_DisableIT_0_31(EXTI_InitStruct->Line_0_31);
 192:Drivers/STM32F7xx_HAL_Driver/Src/stm32f7xx_ll_exti.c ****     LL_EXTI_DisableEvent_0_31(EXTI_InitStruct->Line_0_31);
ARM GAS  /tmp/ccC8SZ8s.s 			page 15


 193:Drivers/STM32F7xx_HAL_Driver/Src/stm32f7xx_ll_exti.c ****   }
 194:Drivers/STM32F7xx_HAL_Driver/Src/stm32f7xx_ll_exti.c ****   return status;
 195:Drivers/STM32F7xx_HAL_Driver/Src/stm32f7xx_ll_exti.c **** }
 146              		.loc 1 195 0
 147 0048 5DF8044B 		ldr	r4, [sp], #4
 148              	.LCFI1:
 149              		.cfi_restore 4
 150              		.cfi_def_cfa_offset 0
 151 004c 7047     		bx	lr
 152              	.LVL12:
 153              	.L8:
 154              	.LBB34:
 155              	.LBB35:
 328:Drivers/STM32F7xx_HAL_Driver/Inc/stm32f7xx_ll_exti.h **** }
 156              		.loc 2 328 0
 157 004e 2249     		ldr	r1, .L24
 158 0050 0868     		ldr	r0, [r1]
 159              	.LVL13:
 160 0052 20EA0202 		bic	r2, r0, r2
 161              	.LVL14:
 162 0056 0A60     		str	r2, [r1]
 163              	.LVL15:
 164              	.LBE35:
 165              	.LBE34:
 149:Drivers/STM32F7xx_HAL_Driver/Src/stm32f7xx_ll_exti.c ****           break;
 166              		.loc 1 149 0
 167 0058 1A68     		ldr	r2, [r3]
 168              	.LVL16:
 169              	.LBB36:
 170              	.LBB37:
 419:Drivers/STM32F7xx_HAL_Driver/Inc/stm32f7xx_ll_exti.h **** 
 171              		.loc 2 419 0
 172 005a 4868     		ldr	r0, [r1, #4]
 173 005c 0243     		orrs	r2, r2, r0
 174              	.LVL17:
 175 005e 4A60     		str	r2, [r1, #4]
 176              	.LVL18:
 177              	.LBE37:
 178              	.LBE36:
 123:Drivers/STM32F7xx_HAL_Driver/Src/stm32f7xx_ll_exti.c ****   /* Check the parameters */
 179              		.loc 1 123 0
 180 0060 0120     		movs	r0, #1
 181 0062 E6E7     		b	.L7
 182              	.LVL19:
 183              	.L10:
 184              	.LBB38:
 185              	.LBB39:
 286:Drivers/STM32F7xx_HAL_Driver/Inc/stm32f7xx_ll_exti.h **** }
 186              		.loc 2 286 0
 187 0064 1C49     		ldr	r1, .L24
 188 0066 0868     		ldr	r0, [r1]
 189              	.LVL20:
 190 0068 0243     		orrs	r2, r2, r0
 191              	.LVL21:
 192 006a 0A60     		str	r2, [r1]
 193              	.LVL22:
 194              	.LBE39:
ARM GAS  /tmp/ccC8SZ8s.s 			page 16


 195              	.LBE38:
 154:Drivers/STM32F7xx_HAL_Driver/Src/stm32f7xx_ll_exti.c ****           break;
 196              		.loc 1 154 0
 197 006c 1A68     		ldr	r2, [r3]
 198              	.LVL23:
 199              	.LBB40:
 200              	.LBB41:
 419:Drivers/STM32F7xx_HAL_Driver/Inc/stm32f7xx_ll_exti.h **** 
 201              		.loc 2 419 0
 202 006e 4868     		ldr	r0, [r1, #4]
 203 0070 0243     		orrs	r2, r2, r0
 204              	.LVL24:
 205 0072 4A60     		str	r2, [r1, #4]
 206              	.LVL25:
 207              	.LBE41:
 208              	.LBE40:
 123:Drivers/STM32F7xx_HAL_Driver/Src/stm32f7xx_ll_exti.c ****   /* Check the parameters */
 209              		.loc 1 123 0
 210 0074 0120     		movs	r0, #1
 211 0076 DCE7     		b	.L7
 212              	.LVL26:
 213              	.L23:
 214              	.LCFI2:
 215              		.cfi_def_cfa_offset 4
 216              		.cfi_offset 4, -4
 166:Drivers/STM32F7xx_HAL_Driver/Src/stm32f7xx_ll_exti.c ****             /* Then Enable Rising Trigger on provided Lines */
 217              		.loc 1 166 0
 218 0078 1C68     		ldr	r4, [r3]
 219              	.LVL27:
 220              	.LBB42:
 221              	.LBB43:
 461:Drivers/STM32F7xx_HAL_Driver/Inc/stm32f7xx_ll_exti.h **** }
 462:Drivers/STM32F7xx_HAL_Driver/Inc/stm32f7xx_ll_exti.h **** 
 463:Drivers/STM32F7xx_HAL_Driver/Inc/stm32f7xx_ll_exti.h **** 
 464:Drivers/STM32F7xx_HAL_Driver/Inc/stm32f7xx_ll_exti.h **** /**
 465:Drivers/STM32F7xx_HAL_Driver/Inc/stm32f7xx_ll_exti.h ****   * @brief  Indicate if ExtiLine Event request is enabled for Lines in range 0 to 31
 466:Drivers/STM32F7xx_HAL_Driver/Inc/stm32f7xx_ll_exti.h ****   * @rmtoll EMR         EMx           LL_EXTI_IsEnabledEvent_0_31
 467:Drivers/STM32F7xx_HAL_Driver/Inc/stm32f7xx_ll_exti.h ****   * @param  ExtiLine This parameter can be one of the following values:
 468:Drivers/STM32F7xx_HAL_Driver/Inc/stm32f7xx_ll_exti.h ****   *         @arg @ref LL_EXTI_LINE_0
 469:Drivers/STM32F7xx_HAL_Driver/Inc/stm32f7xx_ll_exti.h ****   *         @arg @ref LL_EXTI_LINE_1
 470:Drivers/STM32F7xx_HAL_Driver/Inc/stm32f7xx_ll_exti.h ****   *         @arg @ref LL_EXTI_LINE_2
 471:Drivers/STM32F7xx_HAL_Driver/Inc/stm32f7xx_ll_exti.h ****   *         @arg @ref LL_EXTI_LINE_3
 472:Drivers/STM32F7xx_HAL_Driver/Inc/stm32f7xx_ll_exti.h ****   *         @arg @ref LL_EXTI_LINE_4
 473:Drivers/STM32F7xx_HAL_Driver/Inc/stm32f7xx_ll_exti.h ****   *         @arg @ref LL_EXTI_LINE_5
 474:Drivers/STM32F7xx_HAL_Driver/Inc/stm32f7xx_ll_exti.h ****   *         @arg @ref LL_EXTI_LINE_6
 475:Drivers/STM32F7xx_HAL_Driver/Inc/stm32f7xx_ll_exti.h ****   *         @arg @ref LL_EXTI_LINE_7
 476:Drivers/STM32F7xx_HAL_Driver/Inc/stm32f7xx_ll_exti.h ****   *         @arg @ref LL_EXTI_LINE_8
 477:Drivers/STM32F7xx_HAL_Driver/Inc/stm32f7xx_ll_exti.h ****   *         @arg @ref LL_EXTI_LINE_9
 478:Drivers/STM32F7xx_HAL_Driver/Inc/stm32f7xx_ll_exti.h ****   *         @arg @ref LL_EXTI_LINE_10
 479:Drivers/STM32F7xx_HAL_Driver/Inc/stm32f7xx_ll_exti.h ****   *         @arg @ref LL_EXTI_LINE_11
 480:Drivers/STM32F7xx_HAL_Driver/Inc/stm32f7xx_ll_exti.h ****   *         @arg @ref LL_EXTI_LINE_12
 481:Drivers/STM32F7xx_HAL_Driver/Inc/stm32f7xx_ll_exti.h ****   *         @arg @ref LL_EXTI_LINE_13
 482:Drivers/STM32F7xx_HAL_Driver/Inc/stm32f7xx_ll_exti.h ****   *         @arg @ref LL_EXTI_LINE_14
 483:Drivers/STM32F7xx_HAL_Driver/Inc/stm32f7xx_ll_exti.h ****   *         @arg @ref LL_EXTI_LINE_15
 484:Drivers/STM32F7xx_HAL_Driver/Inc/stm32f7xx_ll_exti.h ****   *         @arg @ref LL_EXTI_LINE_16
 485:Drivers/STM32F7xx_HAL_Driver/Inc/stm32f7xx_ll_exti.h ****   *         @arg @ref LL_EXTI_LINE_17
 486:Drivers/STM32F7xx_HAL_Driver/Inc/stm32f7xx_ll_exti.h ****   *         @arg @ref LL_EXTI_LINE_18
ARM GAS  /tmp/ccC8SZ8s.s 			page 17


 487:Drivers/STM32F7xx_HAL_Driver/Inc/stm32f7xx_ll_exti.h ****   *         @arg @ref LL_EXTI_LINE_19
 488:Drivers/STM32F7xx_HAL_Driver/Inc/stm32f7xx_ll_exti.h ****   *         @arg @ref LL_EXTI_LINE_20
 489:Drivers/STM32F7xx_HAL_Driver/Inc/stm32f7xx_ll_exti.h ****   *         @arg @ref LL_EXTI_LINE_21
 490:Drivers/STM32F7xx_HAL_Driver/Inc/stm32f7xx_ll_exti.h ****   *         @arg @ref LL_EXTI_LINE_22
 491:Drivers/STM32F7xx_HAL_Driver/Inc/stm32f7xx_ll_exti.h ****   *         @arg @ref LL_EXTI_LINE_23
 492:Drivers/STM32F7xx_HAL_Driver/Inc/stm32f7xx_ll_exti.h ****   *         @arg @ref LL_EXTI_LINE_24(*)
 493:Drivers/STM32F7xx_HAL_Driver/Inc/stm32f7xx_ll_exti.h ****   *         @arg @ref LL_EXTI_LINE_ALL_0_31
 494:Drivers/STM32F7xx_HAL_Driver/Inc/stm32f7xx_ll_exti.h ****   * @note   (*): Available in some devices
 495:Drivers/STM32F7xx_HAL_Driver/Inc/stm32f7xx_ll_exti.h ****   * @note   Please check each device line mapping for EXTI Line availability
 496:Drivers/STM32F7xx_HAL_Driver/Inc/stm32f7xx_ll_exti.h ****   * @retval State of bit (1 or 0).
 497:Drivers/STM32F7xx_HAL_Driver/Inc/stm32f7xx_ll_exti.h ****   */
 498:Drivers/STM32F7xx_HAL_Driver/Inc/stm32f7xx_ll_exti.h **** __STATIC_INLINE uint32_t LL_EXTI_IsEnabledEvent_0_31(uint32_t ExtiLine)
 499:Drivers/STM32F7xx_HAL_Driver/Inc/stm32f7xx_ll_exti.h **** {
 500:Drivers/STM32F7xx_HAL_Driver/Inc/stm32f7xx_ll_exti.h ****   return (READ_BIT(EXTI->EMR, ExtiLine) == (ExtiLine));
 501:Drivers/STM32F7xx_HAL_Driver/Inc/stm32f7xx_ll_exti.h **** 
 502:Drivers/STM32F7xx_HAL_Driver/Inc/stm32f7xx_ll_exti.h **** }
 503:Drivers/STM32F7xx_HAL_Driver/Inc/stm32f7xx_ll_exti.h **** 
 504:Drivers/STM32F7xx_HAL_Driver/Inc/stm32f7xx_ll_exti.h **** 
 505:Drivers/STM32F7xx_HAL_Driver/Inc/stm32f7xx_ll_exti.h **** /**
 506:Drivers/STM32F7xx_HAL_Driver/Inc/stm32f7xx_ll_exti.h ****   * @}
 507:Drivers/STM32F7xx_HAL_Driver/Inc/stm32f7xx_ll_exti.h ****   */
 508:Drivers/STM32F7xx_HAL_Driver/Inc/stm32f7xx_ll_exti.h **** 
 509:Drivers/STM32F7xx_HAL_Driver/Inc/stm32f7xx_ll_exti.h **** /** @defgroup EXTI_LL_EF_Rising_Trigger_Management Rising_Trigger_Management
 510:Drivers/STM32F7xx_HAL_Driver/Inc/stm32f7xx_ll_exti.h ****   * @{
 511:Drivers/STM32F7xx_HAL_Driver/Inc/stm32f7xx_ll_exti.h ****   */
 512:Drivers/STM32F7xx_HAL_Driver/Inc/stm32f7xx_ll_exti.h **** 
 513:Drivers/STM32F7xx_HAL_Driver/Inc/stm32f7xx_ll_exti.h **** /**
 514:Drivers/STM32F7xx_HAL_Driver/Inc/stm32f7xx_ll_exti.h ****   * @brief  Enable ExtiLine Rising Edge Trigger for Lines in range 0 to 31
 515:Drivers/STM32F7xx_HAL_Driver/Inc/stm32f7xx_ll_exti.h ****   * @note The configurable wakeup lines are edge-triggered. No glitch must be
 516:Drivers/STM32F7xx_HAL_Driver/Inc/stm32f7xx_ll_exti.h ****   *       generated on these lines. If a rising edge on a configurable interrupt
 517:Drivers/STM32F7xx_HAL_Driver/Inc/stm32f7xx_ll_exti.h ****   *       line occurs during a write operation in the EXTI_RTSR register, the
 518:Drivers/STM32F7xx_HAL_Driver/Inc/stm32f7xx_ll_exti.h ****   *       pending bit is not set.
 519:Drivers/STM32F7xx_HAL_Driver/Inc/stm32f7xx_ll_exti.h ****   *       Rising and falling edge triggers can be set for
 520:Drivers/STM32F7xx_HAL_Driver/Inc/stm32f7xx_ll_exti.h ****   *       the same interrupt line. In this case, both generate a trigger
 521:Drivers/STM32F7xx_HAL_Driver/Inc/stm32f7xx_ll_exti.h ****   *       condition.
 522:Drivers/STM32F7xx_HAL_Driver/Inc/stm32f7xx_ll_exti.h ****   * @rmtoll RTSR        RTx           LL_EXTI_EnableRisingTrig_0_31
 523:Drivers/STM32F7xx_HAL_Driver/Inc/stm32f7xx_ll_exti.h ****   * @param  ExtiLine This parameter can be a combination of the following values:
 524:Drivers/STM32F7xx_HAL_Driver/Inc/stm32f7xx_ll_exti.h ****   *         @arg @ref LL_EXTI_LINE_0
 525:Drivers/STM32F7xx_HAL_Driver/Inc/stm32f7xx_ll_exti.h ****   *         @arg @ref LL_EXTI_LINE_1
 526:Drivers/STM32F7xx_HAL_Driver/Inc/stm32f7xx_ll_exti.h ****   *         @arg @ref LL_EXTI_LINE_2
 527:Drivers/STM32F7xx_HAL_Driver/Inc/stm32f7xx_ll_exti.h ****   *         @arg @ref LL_EXTI_LINE_3
 528:Drivers/STM32F7xx_HAL_Driver/Inc/stm32f7xx_ll_exti.h ****   *         @arg @ref LL_EXTI_LINE_4
 529:Drivers/STM32F7xx_HAL_Driver/Inc/stm32f7xx_ll_exti.h ****   *         @arg @ref LL_EXTI_LINE_5
 530:Drivers/STM32F7xx_HAL_Driver/Inc/stm32f7xx_ll_exti.h ****   *         @arg @ref LL_EXTI_LINE_6
 531:Drivers/STM32F7xx_HAL_Driver/Inc/stm32f7xx_ll_exti.h ****   *         @arg @ref LL_EXTI_LINE_7
 532:Drivers/STM32F7xx_HAL_Driver/Inc/stm32f7xx_ll_exti.h ****   *         @arg @ref LL_EXTI_LINE_8
 533:Drivers/STM32F7xx_HAL_Driver/Inc/stm32f7xx_ll_exti.h ****   *         @arg @ref LL_EXTI_LINE_9
 534:Drivers/STM32F7xx_HAL_Driver/Inc/stm32f7xx_ll_exti.h ****   *         @arg @ref LL_EXTI_LINE_10
 535:Drivers/STM32F7xx_HAL_Driver/Inc/stm32f7xx_ll_exti.h ****   *         @arg @ref LL_EXTI_LINE_11
 536:Drivers/STM32F7xx_HAL_Driver/Inc/stm32f7xx_ll_exti.h ****   *         @arg @ref LL_EXTI_LINE_12
 537:Drivers/STM32F7xx_HAL_Driver/Inc/stm32f7xx_ll_exti.h ****   *         @arg @ref LL_EXTI_LINE_13
 538:Drivers/STM32F7xx_HAL_Driver/Inc/stm32f7xx_ll_exti.h ****   *         @arg @ref LL_EXTI_LINE_14
 539:Drivers/STM32F7xx_HAL_Driver/Inc/stm32f7xx_ll_exti.h ****   *         @arg @ref LL_EXTI_LINE_15
 540:Drivers/STM32F7xx_HAL_Driver/Inc/stm32f7xx_ll_exti.h ****   *         @arg @ref LL_EXTI_LINE_16
 541:Drivers/STM32F7xx_HAL_Driver/Inc/stm32f7xx_ll_exti.h ****   *         @arg @ref LL_EXTI_LINE_18
 542:Drivers/STM32F7xx_HAL_Driver/Inc/stm32f7xx_ll_exti.h ****   *         @arg @ref LL_EXTI_LINE_19
 543:Drivers/STM32F7xx_HAL_Driver/Inc/stm32f7xx_ll_exti.h ****   *         @arg @ref LL_EXTI_LINE_20
ARM GAS  /tmp/ccC8SZ8s.s 			page 18


 544:Drivers/STM32F7xx_HAL_Driver/Inc/stm32f7xx_ll_exti.h ****   *         @arg @ref LL_EXTI_LINE_21
 545:Drivers/STM32F7xx_HAL_Driver/Inc/stm32f7xx_ll_exti.h ****   *         @arg @ref LL_EXTI_LINE_22
 546:Drivers/STM32F7xx_HAL_Driver/Inc/stm32f7xx_ll_exti.h ****   * @note   Please check each device line mapping for EXTI Line availability
 547:Drivers/STM32F7xx_HAL_Driver/Inc/stm32f7xx_ll_exti.h ****   * @retval None
 548:Drivers/STM32F7xx_HAL_Driver/Inc/stm32f7xx_ll_exti.h ****   */
 549:Drivers/STM32F7xx_HAL_Driver/Inc/stm32f7xx_ll_exti.h **** __STATIC_INLINE void LL_EXTI_EnableRisingTrig_0_31(uint32_t ExtiLine)
 550:Drivers/STM32F7xx_HAL_Driver/Inc/stm32f7xx_ll_exti.h **** {
 551:Drivers/STM32F7xx_HAL_Driver/Inc/stm32f7xx_ll_exti.h ****   SET_BIT(EXTI->RTSR, ExtiLine);
 552:Drivers/STM32F7xx_HAL_Driver/Inc/stm32f7xx_ll_exti.h **** 
 553:Drivers/STM32F7xx_HAL_Driver/Inc/stm32f7xx_ll_exti.h **** }
 554:Drivers/STM32F7xx_HAL_Driver/Inc/stm32f7xx_ll_exti.h **** 
 555:Drivers/STM32F7xx_HAL_Driver/Inc/stm32f7xx_ll_exti.h **** 
 556:Drivers/STM32F7xx_HAL_Driver/Inc/stm32f7xx_ll_exti.h **** /**
 557:Drivers/STM32F7xx_HAL_Driver/Inc/stm32f7xx_ll_exti.h ****   * @brief  Disable ExtiLine Rising Edge Trigger for Lines in range 0 to 31
 558:Drivers/STM32F7xx_HAL_Driver/Inc/stm32f7xx_ll_exti.h ****   * @note The configurable wakeup lines are edge-triggered. No glitch must be
 559:Drivers/STM32F7xx_HAL_Driver/Inc/stm32f7xx_ll_exti.h ****   *       generated on these lines. If a rising edge on a configurable interrupt
 560:Drivers/STM32F7xx_HAL_Driver/Inc/stm32f7xx_ll_exti.h ****   *       line occurs during a write operation in the EXTI_RTSR register, the
 561:Drivers/STM32F7xx_HAL_Driver/Inc/stm32f7xx_ll_exti.h ****   *       pending bit is not set.
 562:Drivers/STM32F7xx_HAL_Driver/Inc/stm32f7xx_ll_exti.h ****   *       Rising and falling edge triggers can be set for
 563:Drivers/STM32F7xx_HAL_Driver/Inc/stm32f7xx_ll_exti.h ****   *       the same interrupt line. In this case, both generate a trigger
 564:Drivers/STM32F7xx_HAL_Driver/Inc/stm32f7xx_ll_exti.h ****   *       condition.
 565:Drivers/STM32F7xx_HAL_Driver/Inc/stm32f7xx_ll_exti.h ****   * @rmtoll RTSR        RTx           LL_EXTI_DisableRisingTrig_0_31
 566:Drivers/STM32F7xx_HAL_Driver/Inc/stm32f7xx_ll_exti.h ****   * @param  ExtiLine This parameter can be a combination of the following values:
 567:Drivers/STM32F7xx_HAL_Driver/Inc/stm32f7xx_ll_exti.h ****   *         @arg @ref LL_EXTI_LINE_0
 568:Drivers/STM32F7xx_HAL_Driver/Inc/stm32f7xx_ll_exti.h ****   *         @arg @ref LL_EXTI_LINE_1
 569:Drivers/STM32F7xx_HAL_Driver/Inc/stm32f7xx_ll_exti.h ****   *         @arg @ref LL_EXTI_LINE_2
 570:Drivers/STM32F7xx_HAL_Driver/Inc/stm32f7xx_ll_exti.h ****   *         @arg @ref LL_EXTI_LINE_3
 571:Drivers/STM32F7xx_HAL_Driver/Inc/stm32f7xx_ll_exti.h ****   *         @arg @ref LL_EXTI_LINE_4
 572:Drivers/STM32F7xx_HAL_Driver/Inc/stm32f7xx_ll_exti.h ****   *         @arg @ref LL_EXTI_LINE_5
 573:Drivers/STM32F7xx_HAL_Driver/Inc/stm32f7xx_ll_exti.h ****   *         @arg @ref LL_EXTI_LINE_6
 574:Drivers/STM32F7xx_HAL_Driver/Inc/stm32f7xx_ll_exti.h ****   *         @arg @ref LL_EXTI_LINE_7
 575:Drivers/STM32F7xx_HAL_Driver/Inc/stm32f7xx_ll_exti.h ****   *         @arg @ref LL_EXTI_LINE_8
 576:Drivers/STM32F7xx_HAL_Driver/Inc/stm32f7xx_ll_exti.h ****   *         @arg @ref LL_EXTI_LINE_9
 577:Drivers/STM32F7xx_HAL_Driver/Inc/stm32f7xx_ll_exti.h ****   *         @arg @ref LL_EXTI_LINE_10
 578:Drivers/STM32F7xx_HAL_Driver/Inc/stm32f7xx_ll_exti.h ****   *         @arg @ref LL_EXTI_LINE_11
 579:Drivers/STM32F7xx_HAL_Driver/Inc/stm32f7xx_ll_exti.h ****   *         @arg @ref LL_EXTI_LINE_12
 580:Drivers/STM32F7xx_HAL_Driver/Inc/stm32f7xx_ll_exti.h ****   *         @arg @ref LL_EXTI_LINE_13
 581:Drivers/STM32F7xx_HAL_Driver/Inc/stm32f7xx_ll_exti.h ****   *         @arg @ref LL_EXTI_LINE_14
 582:Drivers/STM32F7xx_HAL_Driver/Inc/stm32f7xx_ll_exti.h ****   *         @arg @ref LL_EXTI_LINE_15
 583:Drivers/STM32F7xx_HAL_Driver/Inc/stm32f7xx_ll_exti.h ****   *         @arg @ref LL_EXTI_LINE_16
 584:Drivers/STM32F7xx_HAL_Driver/Inc/stm32f7xx_ll_exti.h ****   *         @arg @ref LL_EXTI_LINE_18
 585:Drivers/STM32F7xx_HAL_Driver/Inc/stm32f7xx_ll_exti.h ****   *         @arg @ref LL_EXTI_LINE_19
 586:Drivers/STM32F7xx_HAL_Driver/Inc/stm32f7xx_ll_exti.h ****   *         @arg @ref LL_EXTI_LINE_20
 587:Drivers/STM32F7xx_HAL_Driver/Inc/stm32f7xx_ll_exti.h ****   *         @arg @ref LL_EXTI_LINE_21
 588:Drivers/STM32F7xx_HAL_Driver/Inc/stm32f7xx_ll_exti.h ****   *         @arg @ref LL_EXTI_LINE_22
 589:Drivers/STM32F7xx_HAL_Driver/Inc/stm32f7xx_ll_exti.h ****   * @note   Please check each device line mapping for EXTI Line availability
 590:Drivers/STM32F7xx_HAL_Driver/Inc/stm32f7xx_ll_exti.h ****   * @retval None
 591:Drivers/STM32F7xx_HAL_Driver/Inc/stm32f7xx_ll_exti.h ****   */
 592:Drivers/STM32F7xx_HAL_Driver/Inc/stm32f7xx_ll_exti.h **** __STATIC_INLINE void LL_EXTI_DisableRisingTrig_0_31(uint32_t ExtiLine)
 593:Drivers/STM32F7xx_HAL_Driver/Inc/stm32f7xx_ll_exti.h **** {
 594:Drivers/STM32F7xx_HAL_Driver/Inc/stm32f7xx_ll_exti.h ****   CLEAR_BIT(EXTI->RTSR, ExtiLine);
 595:Drivers/STM32F7xx_HAL_Driver/Inc/stm32f7xx_ll_exti.h **** 
 596:Drivers/STM32F7xx_HAL_Driver/Inc/stm32f7xx_ll_exti.h **** }
 597:Drivers/STM32F7xx_HAL_Driver/Inc/stm32f7xx_ll_exti.h **** 
 598:Drivers/STM32F7xx_HAL_Driver/Inc/stm32f7xx_ll_exti.h **** 
 599:Drivers/STM32F7xx_HAL_Driver/Inc/stm32f7xx_ll_exti.h **** /**
 600:Drivers/STM32F7xx_HAL_Driver/Inc/stm32f7xx_ll_exti.h ****   * @brief  Check if rising edge trigger is enabled for Lines in range 0 to 31
ARM GAS  /tmp/ccC8SZ8s.s 			page 19


 601:Drivers/STM32F7xx_HAL_Driver/Inc/stm32f7xx_ll_exti.h ****   * @rmtoll RTSR        RTx           LL_EXTI_IsEnabledRisingTrig_0_31
 602:Drivers/STM32F7xx_HAL_Driver/Inc/stm32f7xx_ll_exti.h ****   * @param  ExtiLine This parameter can be a combination of the following values:
 603:Drivers/STM32F7xx_HAL_Driver/Inc/stm32f7xx_ll_exti.h ****   *         @arg @ref LL_EXTI_LINE_0
 604:Drivers/STM32F7xx_HAL_Driver/Inc/stm32f7xx_ll_exti.h ****   *         @arg @ref LL_EXTI_LINE_1
 605:Drivers/STM32F7xx_HAL_Driver/Inc/stm32f7xx_ll_exti.h ****   *         @arg @ref LL_EXTI_LINE_2
 606:Drivers/STM32F7xx_HAL_Driver/Inc/stm32f7xx_ll_exti.h ****   *         @arg @ref LL_EXTI_LINE_3
 607:Drivers/STM32F7xx_HAL_Driver/Inc/stm32f7xx_ll_exti.h ****   *         @arg @ref LL_EXTI_LINE_4
 608:Drivers/STM32F7xx_HAL_Driver/Inc/stm32f7xx_ll_exti.h ****   *         @arg @ref LL_EXTI_LINE_5
 609:Drivers/STM32F7xx_HAL_Driver/Inc/stm32f7xx_ll_exti.h ****   *         @arg @ref LL_EXTI_LINE_6
 610:Drivers/STM32F7xx_HAL_Driver/Inc/stm32f7xx_ll_exti.h ****   *         @arg @ref LL_EXTI_LINE_7
 611:Drivers/STM32F7xx_HAL_Driver/Inc/stm32f7xx_ll_exti.h ****   *         @arg @ref LL_EXTI_LINE_8
 612:Drivers/STM32F7xx_HAL_Driver/Inc/stm32f7xx_ll_exti.h ****   *         @arg @ref LL_EXTI_LINE_9
 613:Drivers/STM32F7xx_HAL_Driver/Inc/stm32f7xx_ll_exti.h ****   *         @arg @ref LL_EXTI_LINE_10
 614:Drivers/STM32F7xx_HAL_Driver/Inc/stm32f7xx_ll_exti.h ****   *         @arg @ref LL_EXTI_LINE_11
 615:Drivers/STM32F7xx_HAL_Driver/Inc/stm32f7xx_ll_exti.h ****   *         @arg @ref LL_EXTI_LINE_12
 616:Drivers/STM32F7xx_HAL_Driver/Inc/stm32f7xx_ll_exti.h ****   *         @arg @ref LL_EXTI_LINE_13
 617:Drivers/STM32F7xx_HAL_Driver/Inc/stm32f7xx_ll_exti.h ****   *         @arg @ref LL_EXTI_LINE_14
 618:Drivers/STM32F7xx_HAL_Driver/Inc/stm32f7xx_ll_exti.h ****   *         @arg @ref LL_EXTI_LINE_15
 619:Drivers/STM32F7xx_HAL_Driver/Inc/stm32f7xx_ll_exti.h ****   *         @arg @ref LL_EXTI_LINE_16
 620:Drivers/STM32F7xx_HAL_Driver/Inc/stm32f7xx_ll_exti.h ****   *         @arg @ref LL_EXTI_LINE_18
 621:Drivers/STM32F7xx_HAL_Driver/Inc/stm32f7xx_ll_exti.h ****   *         @arg @ref LL_EXTI_LINE_19
 622:Drivers/STM32F7xx_HAL_Driver/Inc/stm32f7xx_ll_exti.h ****   *         @arg @ref LL_EXTI_LINE_20
 623:Drivers/STM32F7xx_HAL_Driver/Inc/stm32f7xx_ll_exti.h ****   *         @arg @ref LL_EXTI_LINE_21
 624:Drivers/STM32F7xx_HAL_Driver/Inc/stm32f7xx_ll_exti.h ****   *         @arg @ref LL_EXTI_LINE_22
 625:Drivers/STM32F7xx_HAL_Driver/Inc/stm32f7xx_ll_exti.h ****   * @note   Please check each device line mapping for EXTI Line availability
 626:Drivers/STM32F7xx_HAL_Driver/Inc/stm32f7xx_ll_exti.h ****   * @retval State of bit (1 or 0).
 627:Drivers/STM32F7xx_HAL_Driver/Inc/stm32f7xx_ll_exti.h ****   */
 628:Drivers/STM32F7xx_HAL_Driver/Inc/stm32f7xx_ll_exti.h **** __STATIC_INLINE uint32_t LL_EXTI_IsEnabledRisingTrig_0_31(uint32_t ExtiLine)
 629:Drivers/STM32F7xx_HAL_Driver/Inc/stm32f7xx_ll_exti.h **** {
 630:Drivers/STM32F7xx_HAL_Driver/Inc/stm32f7xx_ll_exti.h ****   return (READ_BIT(EXTI->RTSR, ExtiLine) == (ExtiLine));
 631:Drivers/STM32F7xx_HAL_Driver/Inc/stm32f7xx_ll_exti.h **** }
 632:Drivers/STM32F7xx_HAL_Driver/Inc/stm32f7xx_ll_exti.h **** 
 633:Drivers/STM32F7xx_HAL_Driver/Inc/stm32f7xx_ll_exti.h **** 
 634:Drivers/STM32F7xx_HAL_Driver/Inc/stm32f7xx_ll_exti.h **** /**
 635:Drivers/STM32F7xx_HAL_Driver/Inc/stm32f7xx_ll_exti.h ****   * @}
 636:Drivers/STM32F7xx_HAL_Driver/Inc/stm32f7xx_ll_exti.h ****   */
 637:Drivers/STM32F7xx_HAL_Driver/Inc/stm32f7xx_ll_exti.h **** 
 638:Drivers/STM32F7xx_HAL_Driver/Inc/stm32f7xx_ll_exti.h **** /** @defgroup EXTI_LL_EF_Falling_Trigger_Management Falling_Trigger_Management
 639:Drivers/STM32F7xx_HAL_Driver/Inc/stm32f7xx_ll_exti.h ****   * @{
 640:Drivers/STM32F7xx_HAL_Driver/Inc/stm32f7xx_ll_exti.h ****   */
 641:Drivers/STM32F7xx_HAL_Driver/Inc/stm32f7xx_ll_exti.h **** 
 642:Drivers/STM32F7xx_HAL_Driver/Inc/stm32f7xx_ll_exti.h **** /**
 643:Drivers/STM32F7xx_HAL_Driver/Inc/stm32f7xx_ll_exti.h ****   * @brief  Enable ExtiLine Falling Edge Trigger for Lines in range 0 to 31
 644:Drivers/STM32F7xx_HAL_Driver/Inc/stm32f7xx_ll_exti.h ****   * @note The configurable wakeup lines are edge-triggered. No glitch must be
 645:Drivers/STM32F7xx_HAL_Driver/Inc/stm32f7xx_ll_exti.h ****   *       generated on these lines. If a falling edge on a configurable interrupt
 646:Drivers/STM32F7xx_HAL_Driver/Inc/stm32f7xx_ll_exti.h ****   *       line occurs during a write operation in the EXTI_FTSR register, the
 647:Drivers/STM32F7xx_HAL_Driver/Inc/stm32f7xx_ll_exti.h ****   *       pending bit is not set.
 648:Drivers/STM32F7xx_HAL_Driver/Inc/stm32f7xx_ll_exti.h ****   *       Rising and falling edge triggers can be set for
 649:Drivers/STM32F7xx_HAL_Driver/Inc/stm32f7xx_ll_exti.h ****   *       the same interrupt line. In this case, both generate a trigger
 650:Drivers/STM32F7xx_HAL_Driver/Inc/stm32f7xx_ll_exti.h ****   *       condition.
 651:Drivers/STM32F7xx_HAL_Driver/Inc/stm32f7xx_ll_exti.h ****   * @rmtoll FTSR        FTx           LL_EXTI_EnableFallingTrig_0_31
 652:Drivers/STM32F7xx_HAL_Driver/Inc/stm32f7xx_ll_exti.h ****   * @param  ExtiLine This parameter can be a combination of the following values:
 653:Drivers/STM32F7xx_HAL_Driver/Inc/stm32f7xx_ll_exti.h ****   *         @arg @ref LL_EXTI_LINE_0
 654:Drivers/STM32F7xx_HAL_Driver/Inc/stm32f7xx_ll_exti.h ****   *         @arg @ref LL_EXTI_LINE_1
 655:Drivers/STM32F7xx_HAL_Driver/Inc/stm32f7xx_ll_exti.h ****   *         @arg @ref LL_EXTI_LINE_2
 656:Drivers/STM32F7xx_HAL_Driver/Inc/stm32f7xx_ll_exti.h ****   *         @arg @ref LL_EXTI_LINE_3
 657:Drivers/STM32F7xx_HAL_Driver/Inc/stm32f7xx_ll_exti.h ****   *         @arg @ref LL_EXTI_LINE_4
ARM GAS  /tmp/ccC8SZ8s.s 			page 20


 658:Drivers/STM32F7xx_HAL_Driver/Inc/stm32f7xx_ll_exti.h ****   *         @arg @ref LL_EXTI_LINE_5
 659:Drivers/STM32F7xx_HAL_Driver/Inc/stm32f7xx_ll_exti.h ****   *         @arg @ref LL_EXTI_LINE_6
 660:Drivers/STM32F7xx_HAL_Driver/Inc/stm32f7xx_ll_exti.h ****   *         @arg @ref LL_EXTI_LINE_7
 661:Drivers/STM32F7xx_HAL_Driver/Inc/stm32f7xx_ll_exti.h ****   *         @arg @ref LL_EXTI_LINE_8
 662:Drivers/STM32F7xx_HAL_Driver/Inc/stm32f7xx_ll_exti.h ****   *         @arg @ref LL_EXTI_LINE_9
 663:Drivers/STM32F7xx_HAL_Driver/Inc/stm32f7xx_ll_exti.h ****   *         @arg @ref LL_EXTI_LINE_10
 664:Drivers/STM32F7xx_HAL_Driver/Inc/stm32f7xx_ll_exti.h ****   *         @arg @ref LL_EXTI_LINE_11
 665:Drivers/STM32F7xx_HAL_Driver/Inc/stm32f7xx_ll_exti.h ****   *         @arg @ref LL_EXTI_LINE_12
 666:Drivers/STM32F7xx_HAL_Driver/Inc/stm32f7xx_ll_exti.h ****   *         @arg @ref LL_EXTI_LINE_13
 667:Drivers/STM32F7xx_HAL_Driver/Inc/stm32f7xx_ll_exti.h ****   *         @arg @ref LL_EXTI_LINE_14
 668:Drivers/STM32F7xx_HAL_Driver/Inc/stm32f7xx_ll_exti.h ****   *         @arg @ref LL_EXTI_LINE_15
 669:Drivers/STM32F7xx_HAL_Driver/Inc/stm32f7xx_ll_exti.h ****   *         @arg @ref LL_EXTI_LINE_16
 670:Drivers/STM32F7xx_HAL_Driver/Inc/stm32f7xx_ll_exti.h ****   *         @arg @ref LL_EXTI_LINE_18
 671:Drivers/STM32F7xx_HAL_Driver/Inc/stm32f7xx_ll_exti.h ****   *         @arg @ref LL_EXTI_LINE_19
 672:Drivers/STM32F7xx_HAL_Driver/Inc/stm32f7xx_ll_exti.h ****   *         @arg @ref LL_EXTI_LINE_20
 673:Drivers/STM32F7xx_HAL_Driver/Inc/stm32f7xx_ll_exti.h ****   *         @arg @ref LL_EXTI_LINE_21
 674:Drivers/STM32F7xx_HAL_Driver/Inc/stm32f7xx_ll_exti.h ****   *         @arg @ref LL_EXTI_LINE_22
 675:Drivers/STM32F7xx_HAL_Driver/Inc/stm32f7xx_ll_exti.h ****   * @note   Please check each device line mapping for EXTI Line availability
 676:Drivers/STM32F7xx_HAL_Driver/Inc/stm32f7xx_ll_exti.h ****   * @retval None
 677:Drivers/STM32F7xx_HAL_Driver/Inc/stm32f7xx_ll_exti.h ****   */
 678:Drivers/STM32F7xx_HAL_Driver/Inc/stm32f7xx_ll_exti.h **** __STATIC_INLINE void LL_EXTI_EnableFallingTrig_0_31(uint32_t ExtiLine)
 679:Drivers/STM32F7xx_HAL_Driver/Inc/stm32f7xx_ll_exti.h **** {
 680:Drivers/STM32F7xx_HAL_Driver/Inc/stm32f7xx_ll_exti.h ****   SET_BIT(EXTI->FTSR, ExtiLine);
 681:Drivers/STM32F7xx_HAL_Driver/Inc/stm32f7xx_ll_exti.h **** }
 682:Drivers/STM32F7xx_HAL_Driver/Inc/stm32f7xx_ll_exti.h **** 
 683:Drivers/STM32F7xx_HAL_Driver/Inc/stm32f7xx_ll_exti.h **** 
 684:Drivers/STM32F7xx_HAL_Driver/Inc/stm32f7xx_ll_exti.h **** /**
 685:Drivers/STM32F7xx_HAL_Driver/Inc/stm32f7xx_ll_exti.h ****   * @brief  Disable ExtiLine Falling Edge Trigger for Lines in range 0 to 31
 686:Drivers/STM32F7xx_HAL_Driver/Inc/stm32f7xx_ll_exti.h ****   * @note The configurable wakeup lines are edge-triggered. No glitch must be
 687:Drivers/STM32F7xx_HAL_Driver/Inc/stm32f7xx_ll_exti.h ****   *       generated on these lines. If a Falling edge on a configurable interrupt
 688:Drivers/STM32F7xx_HAL_Driver/Inc/stm32f7xx_ll_exti.h ****   *       line occurs during a write operation in the EXTI_FTSR register, the
 689:Drivers/STM32F7xx_HAL_Driver/Inc/stm32f7xx_ll_exti.h ****   *       pending bit is not set.
 690:Drivers/STM32F7xx_HAL_Driver/Inc/stm32f7xx_ll_exti.h ****   *       Rising and falling edge triggers can be set for the same interrupt line.
 691:Drivers/STM32F7xx_HAL_Driver/Inc/stm32f7xx_ll_exti.h ****   *       In this case, both generate a trigger condition.
 692:Drivers/STM32F7xx_HAL_Driver/Inc/stm32f7xx_ll_exti.h ****   * @rmtoll FTSR        FTx           LL_EXTI_DisableFallingTrig_0_31
 693:Drivers/STM32F7xx_HAL_Driver/Inc/stm32f7xx_ll_exti.h ****   * @param  ExtiLine This parameter can be a combination of the following values:
 694:Drivers/STM32F7xx_HAL_Driver/Inc/stm32f7xx_ll_exti.h ****   *         @arg @ref LL_EXTI_LINE_0
 695:Drivers/STM32F7xx_HAL_Driver/Inc/stm32f7xx_ll_exti.h ****   *         @arg @ref LL_EXTI_LINE_1
 696:Drivers/STM32F7xx_HAL_Driver/Inc/stm32f7xx_ll_exti.h ****   *         @arg @ref LL_EXTI_LINE_2
 697:Drivers/STM32F7xx_HAL_Driver/Inc/stm32f7xx_ll_exti.h ****   *         @arg @ref LL_EXTI_LINE_3
 698:Drivers/STM32F7xx_HAL_Driver/Inc/stm32f7xx_ll_exti.h ****   *         @arg @ref LL_EXTI_LINE_4
 699:Drivers/STM32F7xx_HAL_Driver/Inc/stm32f7xx_ll_exti.h ****   *         @arg @ref LL_EXTI_LINE_5
 700:Drivers/STM32F7xx_HAL_Driver/Inc/stm32f7xx_ll_exti.h ****   *         @arg @ref LL_EXTI_LINE_6
 701:Drivers/STM32F7xx_HAL_Driver/Inc/stm32f7xx_ll_exti.h ****   *         @arg @ref LL_EXTI_LINE_7
 702:Drivers/STM32F7xx_HAL_Driver/Inc/stm32f7xx_ll_exti.h ****   *         @arg @ref LL_EXTI_LINE_8
 703:Drivers/STM32F7xx_HAL_Driver/Inc/stm32f7xx_ll_exti.h ****   *         @arg @ref LL_EXTI_LINE_9
 704:Drivers/STM32F7xx_HAL_Driver/Inc/stm32f7xx_ll_exti.h ****   *         @arg @ref LL_EXTI_LINE_10
 705:Drivers/STM32F7xx_HAL_Driver/Inc/stm32f7xx_ll_exti.h ****   *         @arg @ref LL_EXTI_LINE_11
 706:Drivers/STM32F7xx_HAL_Driver/Inc/stm32f7xx_ll_exti.h ****   *         @arg @ref LL_EXTI_LINE_12
 707:Drivers/STM32F7xx_HAL_Driver/Inc/stm32f7xx_ll_exti.h ****   *         @arg @ref LL_EXTI_LINE_13
 708:Drivers/STM32F7xx_HAL_Driver/Inc/stm32f7xx_ll_exti.h ****   *         @arg @ref LL_EXTI_LINE_14
 709:Drivers/STM32F7xx_HAL_Driver/Inc/stm32f7xx_ll_exti.h ****   *         @arg @ref LL_EXTI_LINE_15
 710:Drivers/STM32F7xx_HAL_Driver/Inc/stm32f7xx_ll_exti.h ****   *         @arg @ref LL_EXTI_LINE_16
 711:Drivers/STM32F7xx_HAL_Driver/Inc/stm32f7xx_ll_exti.h ****   *         @arg @ref LL_EXTI_LINE_18
 712:Drivers/STM32F7xx_HAL_Driver/Inc/stm32f7xx_ll_exti.h ****   *         @arg @ref LL_EXTI_LINE_19
 713:Drivers/STM32F7xx_HAL_Driver/Inc/stm32f7xx_ll_exti.h ****   *         @arg @ref LL_EXTI_LINE_20
 714:Drivers/STM32F7xx_HAL_Driver/Inc/stm32f7xx_ll_exti.h ****   *         @arg @ref LL_EXTI_LINE_21
ARM GAS  /tmp/ccC8SZ8s.s 			page 21


 715:Drivers/STM32F7xx_HAL_Driver/Inc/stm32f7xx_ll_exti.h ****   *         @arg @ref LL_EXTI_LINE_22
 716:Drivers/STM32F7xx_HAL_Driver/Inc/stm32f7xx_ll_exti.h ****   * @note   Please check each device line mapping for EXTI Line availability
 717:Drivers/STM32F7xx_HAL_Driver/Inc/stm32f7xx_ll_exti.h ****   * @retval None
 718:Drivers/STM32F7xx_HAL_Driver/Inc/stm32f7xx_ll_exti.h ****   */
 719:Drivers/STM32F7xx_HAL_Driver/Inc/stm32f7xx_ll_exti.h **** __STATIC_INLINE void LL_EXTI_DisableFallingTrig_0_31(uint32_t ExtiLine)
 720:Drivers/STM32F7xx_HAL_Driver/Inc/stm32f7xx_ll_exti.h **** {
 721:Drivers/STM32F7xx_HAL_Driver/Inc/stm32f7xx_ll_exti.h ****   CLEAR_BIT(EXTI->FTSR, ExtiLine);
 222              		.loc 2 721 0
 223 007a 174A     		ldr	r2, .L24
 224 007c D168     		ldr	r1, [r2, #12]
 225 007e 21EA0401 		bic	r1, r1, r4
 226 0082 D160     		str	r1, [r2, #12]
 227              	.LVL28:
 228              	.LBE43:
 229              	.LBE42:
 168:Drivers/STM32F7xx_HAL_Driver/Src/stm32f7xx_ll_exti.c ****             break;
 230              		.loc 1 168 0
 231 0084 1B68     		ldr	r3, [r3]
 232              	.LVL29:
 233              	.LBB44:
 234              	.LBB45:
 551:Drivers/STM32F7xx_HAL_Driver/Inc/stm32f7xx_ll_exti.h **** 
 235              		.loc 2 551 0
 236 0086 9168     		ldr	r1, [r2, #8]
 237 0088 0B43     		orrs	r3, r3, r1
 238              	.LVL30:
 239 008a 9360     		str	r3, [r2, #8]
 240              	.LVL31:
 241 008c DCE7     		b	.L6
 242              	.LVL32:
 243              	.L11:
 244              	.LBE45:
 245              	.LBE44:
 172:Drivers/STM32F7xx_HAL_Driver/Src/stm32f7xx_ll_exti.c ****             /* Then Enable Falling Trigger on provided Lines */
 246              		.loc 1 172 0
 247 008e 1C68     		ldr	r4, [r3]
 248              	.LVL33:
 249              	.LBB46:
 250              	.LBB47:
 594:Drivers/STM32F7xx_HAL_Driver/Inc/stm32f7xx_ll_exti.h **** 
 251              		.loc 2 594 0
 252 0090 114A     		ldr	r2, .L24
 253 0092 9168     		ldr	r1, [r2, #8]
 254 0094 21EA0401 		bic	r1, r1, r4
 255 0098 9160     		str	r1, [r2, #8]
 256              	.LVL34:
 257              	.LBE47:
 258              	.LBE46:
 174:Drivers/STM32F7xx_HAL_Driver/Src/stm32f7xx_ll_exti.c ****             break;
 259              		.loc 1 174 0
 260 009a 1B68     		ldr	r3, [r3]
 261              	.LVL35:
 262              	.LBB48:
 263              	.LBB49:
 680:Drivers/STM32F7xx_HAL_Driver/Inc/stm32f7xx_ll_exti.h **** }
 264              		.loc 2 680 0
 265 009c D168     		ldr	r1, [r2, #12]
ARM GAS  /tmp/ccC8SZ8s.s 			page 22


 266 009e 0B43     		orrs	r3, r3, r1
 267              	.LVL36:
 268 00a0 D360     		str	r3, [r2, #12]
 269              	.LVL37:
 270 00a2 D1E7     		b	.L6
 271              	.LVL38:
 272              	.L12:
 273              	.LBE49:
 274              	.LBE48:
 177:Drivers/STM32F7xx_HAL_Driver/Src/stm32f7xx_ll_exti.c ****             LL_EXTI_EnableFallingTrig_0_31(EXTI_InitStruct->Line_0_31);
 275              		.loc 1 177 0
 276 00a4 1968     		ldr	r1, [r3]
 277              	.LVL39:
 278              	.LBB50:
 279              	.LBB51:
 551:Drivers/STM32F7xx_HAL_Driver/Inc/stm32f7xx_ll_exti.h **** 
 280              		.loc 2 551 0
 281 00a6 0C4A     		ldr	r2, .L24
 282 00a8 9468     		ldr	r4, [r2, #8]
 283 00aa 2143     		orrs	r1, r1, r4
 284              	.LVL40:
 285 00ac 9160     		str	r1, [r2, #8]
 286              	.LVL41:
 287              	.LBE51:
 288              	.LBE50:
 178:Drivers/STM32F7xx_HAL_Driver/Src/stm32f7xx_ll_exti.c ****             break;
 289              		.loc 1 178 0
 290 00ae 1B68     		ldr	r3, [r3]
 291              	.LVL42:
 292              	.LBB52:
 293              	.LBB53:
 680:Drivers/STM32F7xx_HAL_Driver/Inc/stm32f7xx_ll_exti.h **** }
 294              		.loc 2 680 0
 295 00b0 D168     		ldr	r1, [r2, #12]
 296 00b2 0B43     		orrs	r3, r3, r1
 297              	.LVL43:
 298 00b4 D360     		str	r3, [r2, #12]
 299              	.LVL44:
 300 00b6 C7E7     		b	.L6
 301              	.LVL45:
 302              	.L5:
 303              	.LCFI3:
 304              		.cfi_def_cfa_offset 0
 305              		.cfi_restore 4
 306              	.LBE53:
 307              	.LBE52:
 191:Drivers/STM32F7xx_HAL_Driver/Src/stm32f7xx_ll_exti.c ****     LL_EXTI_DisableEvent_0_31(EXTI_InitStruct->Line_0_31);
 308              		.loc 1 191 0
 309 00b8 0068     		ldr	r0, [r0]
 310              	.LVL46:
 311              	.LBB54:
 312              	.LBB55:
 328:Drivers/STM32F7xx_HAL_Driver/Inc/stm32f7xx_ll_exti.h **** }
 313              		.loc 2 328 0
 314 00ba 074A     		ldr	r2, .L24
 315 00bc 1168     		ldr	r1, [r2]
 316 00be 21EA0001 		bic	r1, r1, r0
ARM GAS  /tmp/ccC8SZ8s.s 			page 23


 317 00c2 1160     		str	r1, [r2]
 318              	.LVL47:
 319              	.LBE55:
 320              	.LBE54:
 192:Drivers/STM32F7xx_HAL_Driver/Src/stm32f7xx_ll_exti.c ****   }
 321              		.loc 1 192 0
 322 00c4 1968     		ldr	r1, [r3]
 323              	.LVL48:
 324              	.LBB56:
 325              	.LBB57:
 460:Drivers/STM32F7xx_HAL_Driver/Inc/stm32f7xx_ll_exti.h **** }
 326              		.loc 2 460 0
 327 00c6 5368     		ldr	r3, [r2, #4]
 328              	.LVL49:
 329 00c8 23EA0103 		bic	r3, r3, r1
 330 00cc 5360     		str	r3, [r2, #4]
 331              	.LBE57:
 332              	.LBE56:
 123:Drivers/STM32F7xx_HAL_Driver/Src/stm32f7xx_ll_exti.c ****   /* Check the parameters */
 333              		.loc 1 123 0
 334 00ce 0120     		movs	r0, #1
 335 00d0 7047     		bx	lr
 336              	.LVL50:
 337              	.L14:
 338 00d2 0120     		movs	r0, #1
 339              	.LVL51:
 340 00d4 7047     		bx	lr
 341              	.LVL52:
 342              	.L20:
 343              		.loc 1 195 0
 344 00d6 7047     		bx	lr
 345              	.L25:
 346              		.align	2
 347              	.L24:
 348 00d8 003C0140 		.word	1073822720
 349              		.cfi_endproc
 350              	.LFE152:
 352              		.section	.text.LL_EXTI_StructInit,"ax",%progbits
 353              		.align	1
 354              		.global	LL_EXTI_StructInit
 355              		.syntax unified
 356              		.thumb
 357              		.thumb_func
 358              		.fpu fpv5-d16
 360              	LL_EXTI_StructInit:
 361              	.LFB153:
 196:Drivers/STM32F7xx_HAL_Driver/Src/stm32f7xx_ll_exti.c **** 
 197:Drivers/STM32F7xx_HAL_Driver/Src/stm32f7xx_ll_exti.c **** /**
 198:Drivers/STM32F7xx_HAL_Driver/Src/stm32f7xx_ll_exti.c ****   * @brief  Set each @ref LL_EXTI_InitTypeDef field to default value.
 199:Drivers/STM32F7xx_HAL_Driver/Src/stm32f7xx_ll_exti.c ****   * @param  EXTI_InitStruct Pointer to a @ref LL_EXTI_InitTypeDef structure.
 200:Drivers/STM32F7xx_HAL_Driver/Src/stm32f7xx_ll_exti.c ****   * @retval None
 201:Drivers/STM32F7xx_HAL_Driver/Src/stm32f7xx_ll_exti.c ****   */
 202:Drivers/STM32F7xx_HAL_Driver/Src/stm32f7xx_ll_exti.c **** void LL_EXTI_StructInit(LL_EXTI_InitTypeDef *EXTI_InitStruct)
 203:Drivers/STM32F7xx_HAL_Driver/Src/stm32f7xx_ll_exti.c **** {
 362              		.loc 1 203 0
 363              		.cfi_startproc
 364              		@ args = 0, pretend = 0, frame = 0
ARM GAS  /tmp/ccC8SZ8s.s 			page 24


 365              		@ frame_needed = 0, uses_anonymous_args = 0
 366              		@ link register save eliminated.
 367              	.LVL53:
 204:Drivers/STM32F7xx_HAL_Driver/Src/stm32f7xx_ll_exti.c ****   EXTI_InitStruct->Line_0_31      = LL_EXTI_LINE_NONE;
 368              		.loc 1 204 0
 369 0000 0023     		movs	r3, #0
 370 0002 0360     		str	r3, [r0]
 205:Drivers/STM32F7xx_HAL_Driver/Src/stm32f7xx_ll_exti.c ****   EXTI_InitStruct->LineCommand    = DISABLE;
 371              		.loc 1 205 0
 372 0004 0371     		strb	r3, [r0, #4]
 206:Drivers/STM32F7xx_HAL_Driver/Src/stm32f7xx_ll_exti.c ****   EXTI_InitStruct->Mode           = LL_EXTI_MODE_IT;
 373              		.loc 1 206 0
 374 0006 4371     		strb	r3, [r0, #5]
 207:Drivers/STM32F7xx_HAL_Driver/Src/stm32f7xx_ll_exti.c ****   EXTI_InitStruct->Trigger        = LL_EXTI_TRIGGER_FALLING;
 375              		.loc 1 207 0
 376 0008 0223     		movs	r3, #2
 377 000a 8371     		strb	r3, [r0, #6]
 208:Drivers/STM32F7xx_HAL_Driver/Src/stm32f7xx_ll_exti.c **** }
 378              		.loc 1 208 0
 379 000c 7047     		bx	lr
 380              		.cfi_endproc
 381              	.LFE153:
 383              		.text
 384              	.Letext0:
 385              		.file 3 "/usr/arm-none-eabi/include/machine/_default_types.h"
 386              		.file 4 "/usr/arm-none-eabi/include/sys/_stdint.h"
 387              		.file 5 "Drivers/CMSIS/Include/core_cm7.h"
 388              		.file 6 "Drivers/CMSIS/Device/ST/STM32F7xx/Include/system_stm32f7xx.h"
 389              		.file 7 "Drivers/CMSIS/Device/ST/STM32F7xx/Include/stm32f767xx.h"
 390              		.file 8 "Drivers/CMSIS/Device/ST/STM32F7xx/Include/stm32f7xx.h"
ARM GAS  /tmp/ccC8SZ8s.s 			page 25

