ARM GAS  /tmp/cc6sio8H.s 			page 1


   1              		.cpu cortex-m7
   2              		.eabi_attribute 28, 1
   3              		.eabi_attribute 20, 1
   4              		.eabi_attribute 21, 1
   5              		.eabi_attribute 23, 3
   6              		.eabi_attribute 24, 1
   7              		.eabi_attribute 25, 1
   8              		.eabi_attribute 26, 1
   9              		.eabi_attribute 30, 1
  10              		.eabi_attribute 34, 1
  11              		.eabi_attribute 18, 4
  12              		.file	"stm32f7xx_ll_gpio.c"
  13              		.text
  14              	.Ltext0:
  15              		.cfi_sections	.debug_frame
  16              		.section	.text.LL_GPIO_DeInit,"ax",%progbits
  17              		.align	1
  18              		.global	LL_GPIO_DeInit
  19              		.syntax unified
  20              		.thumb
  21              		.thumb_func
  22              		.fpu fpv5-d16
  24              	LL_GPIO_DeInit:
  25              	.LFB193:
  26              		.file 1 "Drivers/STM32F7xx_HAL_Driver/Src/stm32f7xx_ll_gpio.c"
   1:Drivers/STM32F7xx_HAL_Driver/Src/stm32f7xx_ll_gpio.c **** /**
   2:Drivers/STM32F7xx_HAL_Driver/Src/stm32f7xx_ll_gpio.c ****   ******************************************************************************
   3:Drivers/STM32F7xx_HAL_Driver/Src/stm32f7xx_ll_gpio.c ****   * @file    stm32f7xx_ll_gpio.c
   4:Drivers/STM32F7xx_HAL_Driver/Src/stm32f7xx_ll_gpio.c ****   * @author  MCD Application Team
   5:Drivers/STM32F7xx_HAL_Driver/Src/stm32f7xx_ll_gpio.c ****   * @brief   GPIO LL module driver.
   6:Drivers/STM32F7xx_HAL_Driver/Src/stm32f7xx_ll_gpio.c ****   ******************************************************************************
   7:Drivers/STM32F7xx_HAL_Driver/Src/stm32f7xx_ll_gpio.c ****   * @attention
   8:Drivers/STM32F7xx_HAL_Driver/Src/stm32f7xx_ll_gpio.c ****   *
   9:Drivers/STM32F7xx_HAL_Driver/Src/stm32f7xx_ll_gpio.c ****   * <h2><center>&copy; COPYRIGHT(c) 2017 STMicroelectronics</center></h2>
  10:Drivers/STM32F7xx_HAL_Driver/Src/stm32f7xx_ll_gpio.c ****   *
  11:Drivers/STM32F7xx_HAL_Driver/Src/stm32f7xx_ll_gpio.c ****   * Redistribution and use in source and binary forms, with or without modification,
  12:Drivers/STM32F7xx_HAL_Driver/Src/stm32f7xx_ll_gpio.c ****   * are permitted provided that the following conditions are met:
  13:Drivers/STM32F7xx_HAL_Driver/Src/stm32f7xx_ll_gpio.c ****   *   1. Redistributions of source code must retain the above copyright notice,
  14:Drivers/STM32F7xx_HAL_Driver/Src/stm32f7xx_ll_gpio.c ****   *      this list of conditions and the following disclaimer.
  15:Drivers/STM32F7xx_HAL_Driver/Src/stm32f7xx_ll_gpio.c ****   *   2. Redistributions in binary form must reproduce the above copyright notice,
  16:Drivers/STM32F7xx_HAL_Driver/Src/stm32f7xx_ll_gpio.c ****   *      this list of conditions and the following disclaimer in the documentation
  17:Drivers/STM32F7xx_HAL_Driver/Src/stm32f7xx_ll_gpio.c ****   *      and/or other materials provided with the distribution.
  18:Drivers/STM32F7xx_HAL_Driver/Src/stm32f7xx_ll_gpio.c ****   *   3. Neither the name of STMicroelectronics nor the names of its contributors
  19:Drivers/STM32F7xx_HAL_Driver/Src/stm32f7xx_ll_gpio.c ****   *      may be used to endorse or promote products derived from this software
  20:Drivers/STM32F7xx_HAL_Driver/Src/stm32f7xx_ll_gpio.c ****   *      without specific prior written permission.
  21:Drivers/STM32F7xx_HAL_Driver/Src/stm32f7xx_ll_gpio.c ****   *
  22:Drivers/STM32F7xx_HAL_Driver/Src/stm32f7xx_ll_gpio.c ****   * THIS SOFTWARE IS PROVIDED BY THE COPYRIGHT HOLDERS AND CONTRIBUTORS "AS IS"
  23:Drivers/STM32F7xx_HAL_Driver/Src/stm32f7xx_ll_gpio.c ****   * AND ANY EXPRESS OR IMPLIED WARRANTIES, INCLUDING, BUT NOT LIMITED TO, THE
  24:Drivers/STM32F7xx_HAL_Driver/Src/stm32f7xx_ll_gpio.c ****   * IMPLIED WARRANTIES OF MERCHANTABILITY AND FITNESS FOR A PARTICULAR PURPOSE ARE
  25:Drivers/STM32F7xx_HAL_Driver/Src/stm32f7xx_ll_gpio.c ****   * DISCLAIMED. IN NO EVENT SHALL THE COPYRIGHT HOLDER OR CONTRIBUTORS BE LIABLE
  26:Drivers/STM32F7xx_HAL_Driver/Src/stm32f7xx_ll_gpio.c ****   * FOR ANY DIRECT, INDIRECT, INCIDENTAL, SPECIAL, EXEMPLARY, OR CONSEQUENTIAL
  27:Drivers/STM32F7xx_HAL_Driver/Src/stm32f7xx_ll_gpio.c ****   * DAMAGES (INCLUDING, BUT NOT LIMITED TO, PROCUREMENT OF SUBSTITUTE GOODS OR
  28:Drivers/STM32F7xx_HAL_Driver/Src/stm32f7xx_ll_gpio.c ****   * SERVICES; LOSS OF USE, DATA, OR PROFITS; OR BUSINESS INTERRUPTION) HOWEVER
  29:Drivers/STM32F7xx_HAL_Driver/Src/stm32f7xx_ll_gpio.c ****   * CAUSED AND ON ANY THEORY OF LIABILITY, WHETHER IN CONTRACT, STRICT LIABILITY,
  30:Drivers/STM32F7xx_HAL_Driver/Src/stm32f7xx_ll_gpio.c ****   * OR TORT (INCLUDING NEGLIGENCE OR OTHERWISE) ARISING IN ANY WAY OUT OF THE USE
  31:Drivers/STM32F7xx_HAL_Driver/Src/stm32f7xx_ll_gpio.c ****   * OF THIS SOFTWARE, EVEN IF ADVISED OF THE POSSIBILITY OF SUCH DAMAGE.
  32:Drivers/STM32F7xx_HAL_Driver/Src/stm32f7xx_ll_gpio.c ****   *
ARM GAS  /tmp/cc6sio8H.s 			page 2


  33:Drivers/STM32F7xx_HAL_Driver/Src/stm32f7xx_ll_gpio.c ****   ******************************************************************************
  34:Drivers/STM32F7xx_HAL_Driver/Src/stm32f7xx_ll_gpio.c ****   */
  35:Drivers/STM32F7xx_HAL_Driver/Src/stm32f7xx_ll_gpio.c **** #if defined(USE_FULL_LL_DRIVER)
  36:Drivers/STM32F7xx_HAL_Driver/Src/stm32f7xx_ll_gpio.c **** 
  37:Drivers/STM32F7xx_HAL_Driver/Src/stm32f7xx_ll_gpio.c **** /* Includes ------------------------------------------------------------------*/
  38:Drivers/STM32F7xx_HAL_Driver/Src/stm32f7xx_ll_gpio.c **** #include "stm32f7xx_ll_gpio.h"
  39:Drivers/STM32F7xx_HAL_Driver/Src/stm32f7xx_ll_gpio.c **** #include "stm32f7xx_ll_bus.h"
  40:Drivers/STM32F7xx_HAL_Driver/Src/stm32f7xx_ll_gpio.c **** #ifdef  USE_FULL_ASSERT
  41:Drivers/STM32F7xx_HAL_Driver/Src/stm32f7xx_ll_gpio.c **** #include "stm32_assert.h"
  42:Drivers/STM32F7xx_HAL_Driver/Src/stm32f7xx_ll_gpio.c **** #else
  43:Drivers/STM32F7xx_HAL_Driver/Src/stm32f7xx_ll_gpio.c **** #define assert_param(expr) ((void)0U)
  44:Drivers/STM32F7xx_HAL_Driver/Src/stm32f7xx_ll_gpio.c **** #endif
  45:Drivers/STM32F7xx_HAL_Driver/Src/stm32f7xx_ll_gpio.c **** 
  46:Drivers/STM32F7xx_HAL_Driver/Src/stm32f7xx_ll_gpio.c **** /** @addtogroup STM32F7xx_LL_Driver
  47:Drivers/STM32F7xx_HAL_Driver/Src/stm32f7xx_ll_gpio.c ****   * @{
  48:Drivers/STM32F7xx_HAL_Driver/Src/stm32f7xx_ll_gpio.c ****   */
  49:Drivers/STM32F7xx_HAL_Driver/Src/stm32f7xx_ll_gpio.c **** 
  50:Drivers/STM32F7xx_HAL_Driver/Src/stm32f7xx_ll_gpio.c **** #if defined (GPIOA) || defined (GPIOB) || defined (GPIOC) || defined (GPIOD) || defined (GPIOE) || 
  51:Drivers/STM32F7xx_HAL_Driver/Src/stm32f7xx_ll_gpio.c **** 
  52:Drivers/STM32F7xx_HAL_Driver/Src/stm32f7xx_ll_gpio.c **** /** @addtogroup GPIO_LL
  53:Drivers/STM32F7xx_HAL_Driver/Src/stm32f7xx_ll_gpio.c ****   * @{
  54:Drivers/STM32F7xx_HAL_Driver/Src/stm32f7xx_ll_gpio.c ****   */
  55:Drivers/STM32F7xx_HAL_Driver/Src/stm32f7xx_ll_gpio.c **** 
  56:Drivers/STM32F7xx_HAL_Driver/Src/stm32f7xx_ll_gpio.c **** /* Private types -------------------------------------------------------------*/
  57:Drivers/STM32F7xx_HAL_Driver/Src/stm32f7xx_ll_gpio.c **** /* Private variables ---------------------------------------------------------*/
  58:Drivers/STM32F7xx_HAL_Driver/Src/stm32f7xx_ll_gpio.c **** /* Private constants ---------------------------------------------------------*/
  59:Drivers/STM32F7xx_HAL_Driver/Src/stm32f7xx_ll_gpio.c **** /* Private macros ------------------------------------------------------------*/
  60:Drivers/STM32F7xx_HAL_Driver/Src/stm32f7xx_ll_gpio.c **** /** @addtogroup GPIO_LL_Private_Macros
  61:Drivers/STM32F7xx_HAL_Driver/Src/stm32f7xx_ll_gpio.c ****   * @{
  62:Drivers/STM32F7xx_HAL_Driver/Src/stm32f7xx_ll_gpio.c ****   */
  63:Drivers/STM32F7xx_HAL_Driver/Src/stm32f7xx_ll_gpio.c **** #define IS_LL_GPIO_PIN(__VALUE__)          (((0x00000000U) < (__VALUE__)) && ((__VALUE__) <= (LL_GP
  64:Drivers/STM32F7xx_HAL_Driver/Src/stm32f7xx_ll_gpio.c **** 
  65:Drivers/STM32F7xx_HAL_Driver/Src/stm32f7xx_ll_gpio.c **** #define IS_LL_GPIO_MODE(__VALUE__)         (((__VALUE__) == LL_GPIO_MODE_INPUT)     ||\
  66:Drivers/STM32F7xx_HAL_Driver/Src/stm32f7xx_ll_gpio.c ****                                             ((__VALUE__) == LL_GPIO_MODE_OUTPUT)    ||\
  67:Drivers/STM32F7xx_HAL_Driver/Src/stm32f7xx_ll_gpio.c ****                                             ((__VALUE__) == LL_GPIO_MODE_ALTERNATE) ||\
  68:Drivers/STM32F7xx_HAL_Driver/Src/stm32f7xx_ll_gpio.c ****                                             ((__VALUE__) == LL_GPIO_MODE_ANALOG))
  69:Drivers/STM32F7xx_HAL_Driver/Src/stm32f7xx_ll_gpio.c **** 
  70:Drivers/STM32F7xx_HAL_Driver/Src/stm32f7xx_ll_gpio.c **** #define IS_LL_GPIO_OUTPUT_TYPE(__VALUE__)  (((__VALUE__) == LL_GPIO_OUTPUT_PUSHPULL)  ||\
  71:Drivers/STM32F7xx_HAL_Driver/Src/stm32f7xx_ll_gpio.c ****                                             ((__VALUE__) == LL_GPIO_OUTPUT_OPENDRAIN))
  72:Drivers/STM32F7xx_HAL_Driver/Src/stm32f7xx_ll_gpio.c **** 
  73:Drivers/STM32F7xx_HAL_Driver/Src/stm32f7xx_ll_gpio.c **** #define IS_LL_GPIO_SPEED(__VALUE__)        (((__VALUE__) == LL_GPIO_SPEED_FREQ_LOW)       ||\
  74:Drivers/STM32F7xx_HAL_Driver/Src/stm32f7xx_ll_gpio.c ****                                             ((__VALUE__) == LL_GPIO_SPEED_FREQ_MEDIUM)    ||\
  75:Drivers/STM32F7xx_HAL_Driver/Src/stm32f7xx_ll_gpio.c ****                                             ((__VALUE__) == LL_GPIO_SPEED_FREQ_HIGH)      ||\
  76:Drivers/STM32F7xx_HAL_Driver/Src/stm32f7xx_ll_gpio.c ****                                             ((__VALUE__) == LL_GPIO_SPEED_FREQ_VERY_HIGH))
  77:Drivers/STM32F7xx_HAL_Driver/Src/stm32f7xx_ll_gpio.c **** 
  78:Drivers/STM32F7xx_HAL_Driver/Src/stm32f7xx_ll_gpio.c **** #define IS_LL_GPIO_PULL(__VALUE__)         (((__VALUE__) == LL_GPIO_PULL_NO)   ||\
  79:Drivers/STM32F7xx_HAL_Driver/Src/stm32f7xx_ll_gpio.c ****                                             ((__VALUE__) == LL_GPIO_PULL_UP)   ||\
  80:Drivers/STM32F7xx_HAL_Driver/Src/stm32f7xx_ll_gpio.c ****                                             ((__VALUE__) == LL_GPIO_PULL_DOWN))
  81:Drivers/STM32F7xx_HAL_Driver/Src/stm32f7xx_ll_gpio.c **** 
  82:Drivers/STM32F7xx_HAL_Driver/Src/stm32f7xx_ll_gpio.c **** #define IS_LL_GPIO_ALTERNATE(__VALUE__)    (((__VALUE__) == LL_GPIO_AF_0  )   ||\
  83:Drivers/STM32F7xx_HAL_Driver/Src/stm32f7xx_ll_gpio.c ****                                             ((__VALUE__) == LL_GPIO_AF_1  )   ||\
  84:Drivers/STM32F7xx_HAL_Driver/Src/stm32f7xx_ll_gpio.c ****                                             ((__VALUE__) == LL_GPIO_AF_2  )   ||\
  85:Drivers/STM32F7xx_HAL_Driver/Src/stm32f7xx_ll_gpio.c ****                                             ((__VALUE__) == LL_GPIO_AF_3  )   ||\
  86:Drivers/STM32F7xx_HAL_Driver/Src/stm32f7xx_ll_gpio.c ****                                             ((__VALUE__) == LL_GPIO_AF_4  )   ||\
  87:Drivers/STM32F7xx_HAL_Driver/Src/stm32f7xx_ll_gpio.c ****                                             ((__VALUE__) == LL_GPIO_AF_5  )   ||\
  88:Drivers/STM32F7xx_HAL_Driver/Src/stm32f7xx_ll_gpio.c ****                                             ((__VALUE__) == LL_GPIO_AF_6  )   ||\
  89:Drivers/STM32F7xx_HAL_Driver/Src/stm32f7xx_ll_gpio.c ****                                             ((__VALUE__) == LL_GPIO_AF_7  )   ||\
ARM GAS  /tmp/cc6sio8H.s 			page 3


  90:Drivers/STM32F7xx_HAL_Driver/Src/stm32f7xx_ll_gpio.c ****                                             ((__VALUE__) == LL_GPIO_AF_8  )   ||\
  91:Drivers/STM32F7xx_HAL_Driver/Src/stm32f7xx_ll_gpio.c ****                                             ((__VALUE__) == LL_GPIO_AF_9  )   ||\
  92:Drivers/STM32F7xx_HAL_Driver/Src/stm32f7xx_ll_gpio.c ****                                             ((__VALUE__) == LL_GPIO_AF_10 )   ||\
  93:Drivers/STM32F7xx_HAL_Driver/Src/stm32f7xx_ll_gpio.c ****                                             ((__VALUE__) == LL_GPIO_AF_11 )   ||\
  94:Drivers/STM32F7xx_HAL_Driver/Src/stm32f7xx_ll_gpio.c ****                                             ((__VALUE__) == LL_GPIO_AF_12 )   ||\
  95:Drivers/STM32F7xx_HAL_Driver/Src/stm32f7xx_ll_gpio.c ****                                             ((__VALUE__) == LL_GPIO_AF_13 )   ||\
  96:Drivers/STM32F7xx_HAL_Driver/Src/stm32f7xx_ll_gpio.c ****                                             ((__VALUE__) == LL_GPIO_AF_14 )   ||\
  97:Drivers/STM32F7xx_HAL_Driver/Src/stm32f7xx_ll_gpio.c ****                                             ((__VALUE__) == LL_GPIO_AF_15 ))
  98:Drivers/STM32F7xx_HAL_Driver/Src/stm32f7xx_ll_gpio.c **** /**
  99:Drivers/STM32F7xx_HAL_Driver/Src/stm32f7xx_ll_gpio.c ****   * @}
 100:Drivers/STM32F7xx_HAL_Driver/Src/stm32f7xx_ll_gpio.c ****   */
 101:Drivers/STM32F7xx_HAL_Driver/Src/stm32f7xx_ll_gpio.c **** 
 102:Drivers/STM32F7xx_HAL_Driver/Src/stm32f7xx_ll_gpio.c **** /* Private function prototypes -----------------------------------------------*/
 103:Drivers/STM32F7xx_HAL_Driver/Src/stm32f7xx_ll_gpio.c **** 
 104:Drivers/STM32F7xx_HAL_Driver/Src/stm32f7xx_ll_gpio.c **** /* Exported functions --------------------------------------------------------*/
 105:Drivers/STM32F7xx_HAL_Driver/Src/stm32f7xx_ll_gpio.c **** /** @addtogroup GPIO_LL_Exported_Functions
 106:Drivers/STM32F7xx_HAL_Driver/Src/stm32f7xx_ll_gpio.c ****   * @{
 107:Drivers/STM32F7xx_HAL_Driver/Src/stm32f7xx_ll_gpio.c ****   */
 108:Drivers/STM32F7xx_HAL_Driver/Src/stm32f7xx_ll_gpio.c **** 
 109:Drivers/STM32F7xx_HAL_Driver/Src/stm32f7xx_ll_gpio.c **** /** @addtogroup GPIO_LL_EF_Init
 110:Drivers/STM32F7xx_HAL_Driver/Src/stm32f7xx_ll_gpio.c ****   * @{
 111:Drivers/STM32F7xx_HAL_Driver/Src/stm32f7xx_ll_gpio.c ****   */
 112:Drivers/STM32F7xx_HAL_Driver/Src/stm32f7xx_ll_gpio.c **** 
 113:Drivers/STM32F7xx_HAL_Driver/Src/stm32f7xx_ll_gpio.c **** /**
 114:Drivers/STM32F7xx_HAL_Driver/Src/stm32f7xx_ll_gpio.c ****   * @brief  De-initialize GPIO registers (Registers restored to their default values).
 115:Drivers/STM32F7xx_HAL_Driver/Src/stm32f7xx_ll_gpio.c ****   * @param  GPIOx GPIO Port
 116:Drivers/STM32F7xx_HAL_Driver/Src/stm32f7xx_ll_gpio.c ****   * @retval An ErrorStatus enumeration value:
 117:Drivers/STM32F7xx_HAL_Driver/Src/stm32f7xx_ll_gpio.c ****   *          - SUCCESS: GPIO registers are de-initialized
 118:Drivers/STM32F7xx_HAL_Driver/Src/stm32f7xx_ll_gpio.c ****   *          - ERROR:   Wrong GPIO Port
 119:Drivers/STM32F7xx_HAL_Driver/Src/stm32f7xx_ll_gpio.c ****   */
 120:Drivers/STM32F7xx_HAL_Driver/Src/stm32f7xx_ll_gpio.c **** ErrorStatus LL_GPIO_DeInit(GPIO_TypeDef *GPIOx)
 121:Drivers/STM32F7xx_HAL_Driver/Src/stm32f7xx_ll_gpio.c **** {
  27              		.loc 1 121 0
  28              		.cfi_startproc
  29              		@ args = 0, pretend = 0, frame = 0
  30              		@ frame_needed = 0, uses_anonymous_args = 0
  31              		@ link register save eliminated.
  32              	.LVL0:
 122:Drivers/STM32F7xx_HAL_Driver/Src/stm32f7xx_ll_gpio.c ****   ErrorStatus status = SUCCESS;
 123:Drivers/STM32F7xx_HAL_Driver/Src/stm32f7xx_ll_gpio.c **** 
 124:Drivers/STM32F7xx_HAL_Driver/Src/stm32f7xx_ll_gpio.c ****   /* Check the parameters */
 125:Drivers/STM32F7xx_HAL_Driver/Src/stm32f7xx_ll_gpio.c ****   assert_param(IS_GPIO_ALL_INSTANCE(GPIOx));
 126:Drivers/STM32F7xx_HAL_Driver/Src/stm32f7xx_ll_gpio.c **** 
 127:Drivers/STM32F7xx_HAL_Driver/Src/stm32f7xx_ll_gpio.c ****   /* Force and Release reset on clock of GPIOx Port */
 128:Drivers/STM32F7xx_HAL_Driver/Src/stm32f7xx_ll_gpio.c ****   if (GPIOx == GPIOA)
  33              		.loc 1 128 0
  34 0000 534B     		ldr	r3, .L25
  35 0002 9842     		cmp	r0, r3
  36 0004 1FD0     		beq	.L14
 129:Drivers/STM32F7xx_HAL_Driver/Src/stm32f7xx_ll_gpio.c ****   {
 130:Drivers/STM32F7xx_HAL_Driver/Src/stm32f7xx_ll_gpio.c ****     LL_AHB1_GRP1_ForceReset(LL_AHB1_GRP1_PERIPH_GPIOA);
 131:Drivers/STM32F7xx_HAL_Driver/Src/stm32f7xx_ll_gpio.c ****     LL_AHB1_GRP1_ReleaseReset(LL_AHB1_GRP1_PERIPH_GPIOA);
 132:Drivers/STM32F7xx_HAL_Driver/Src/stm32f7xx_ll_gpio.c ****   }
 133:Drivers/STM32F7xx_HAL_Driver/Src/stm32f7xx_ll_gpio.c ****   else if (GPIOx == GPIOB)
  37              		.loc 1 133 0
  38 0006 534B     		ldr	r3, .L25+4
  39 0008 9842     		cmp	r0, r3
ARM GAS  /tmp/cc6sio8H.s 			page 4


  40 000a 28D0     		beq	.L15
 134:Drivers/STM32F7xx_HAL_Driver/Src/stm32f7xx_ll_gpio.c ****   {
 135:Drivers/STM32F7xx_HAL_Driver/Src/stm32f7xx_ll_gpio.c ****     LL_AHB1_GRP1_ForceReset(LL_AHB1_GRP1_PERIPH_GPIOB);
 136:Drivers/STM32F7xx_HAL_Driver/Src/stm32f7xx_ll_gpio.c ****     LL_AHB1_GRP1_ReleaseReset(LL_AHB1_GRP1_PERIPH_GPIOB);
 137:Drivers/STM32F7xx_HAL_Driver/Src/stm32f7xx_ll_gpio.c ****   }
 138:Drivers/STM32F7xx_HAL_Driver/Src/stm32f7xx_ll_gpio.c ****   else if (GPIOx == GPIOC)
  41              		.loc 1 138 0
  42 000c 524B     		ldr	r3, .L25+8
  43 000e 9842     		cmp	r0, r3
  44 0010 31D0     		beq	.L16
 139:Drivers/STM32F7xx_HAL_Driver/Src/stm32f7xx_ll_gpio.c ****   {
 140:Drivers/STM32F7xx_HAL_Driver/Src/stm32f7xx_ll_gpio.c ****     LL_AHB1_GRP1_ForceReset(LL_AHB1_GRP1_PERIPH_GPIOC);
 141:Drivers/STM32F7xx_HAL_Driver/Src/stm32f7xx_ll_gpio.c ****     LL_AHB1_GRP1_ReleaseReset(LL_AHB1_GRP1_PERIPH_GPIOC);
 142:Drivers/STM32F7xx_HAL_Driver/Src/stm32f7xx_ll_gpio.c ****   }
 143:Drivers/STM32F7xx_HAL_Driver/Src/stm32f7xx_ll_gpio.c **** #if defined(GPIOD)
 144:Drivers/STM32F7xx_HAL_Driver/Src/stm32f7xx_ll_gpio.c ****   else if (GPIOx == GPIOD)
  45              		.loc 1 144 0
  46 0012 524B     		ldr	r3, .L25+12
  47 0014 9842     		cmp	r0, r3
  48 0016 3AD0     		beq	.L17
 145:Drivers/STM32F7xx_HAL_Driver/Src/stm32f7xx_ll_gpio.c ****   {
 146:Drivers/STM32F7xx_HAL_Driver/Src/stm32f7xx_ll_gpio.c ****     LL_AHB1_GRP1_ForceReset(LL_AHB1_GRP1_PERIPH_GPIOD);
 147:Drivers/STM32F7xx_HAL_Driver/Src/stm32f7xx_ll_gpio.c ****     LL_AHB1_GRP1_ReleaseReset(LL_AHB1_GRP1_PERIPH_GPIOD);
 148:Drivers/STM32F7xx_HAL_Driver/Src/stm32f7xx_ll_gpio.c ****   }
 149:Drivers/STM32F7xx_HAL_Driver/Src/stm32f7xx_ll_gpio.c **** #endif /* GPIOD */
 150:Drivers/STM32F7xx_HAL_Driver/Src/stm32f7xx_ll_gpio.c **** #if defined(GPIOE)
 151:Drivers/STM32F7xx_HAL_Driver/Src/stm32f7xx_ll_gpio.c ****   else if (GPIOx == GPIOE)
  49              		.loc 1 151 0
  50 0018 514B     		ldr	r3, .L25+16
  51 001a 9842     		cmp	r0, r3
  52 001c 43D0     		beq	.L18
 152:Drivers/STM32F7xx_HAL_Driver/Src/stm32f7xx_ll_gpio.c ****   {
 153:Drivers/STM32F7xx_HAL_Driver/Src/stm32f7xx_ll_gpio.c ****     LL_AHB1_GRP1_ForceReset(LL_AHB1_GRP1_PERIPH_GPIOE);
 154:Drivers/STM32F7xx_HAL_Driver/Src/stm32f7xx_ll_gpio.c ****     LL_AHB1_GRP1_ReleaseReset(LL_AHB1_GRP1_PERIPH_GPIOE);
 155:Drivers/STM32F7xx_HAL_Driver/Src/stm32f7xx_ll_gpio.c ****   }
 156:Drivers/STM32F7xx_HAL_Driver/Src/stm32f7xx_ll_gpio.c **** #endif /* GPIOE */
 157:Drivers/STM32F7xx_HAL_Driver/Src/stm32f7xx_ll_gpio.c **** #if defined(GPIOF)
 158:Drivers/STM32F7xx_HAL_Driver/Src/stm32f7xx_ll_gpio.c ****   else if (GPIOx == GPIOF)
  53              		.loc 1 158 0
  54 001e 514B     		ldr	r3, .L25+20
  55 0020 9842     		cmp	r0, r3
  56 0022 4CD0     		beq	.L19
 159:Drivers/STM32F7xx_HAL_Driver/Src/stm32f7xx_ll_gpio.c ****   {
 160:Drivers/STM32F7xx_HAL_Driver/Src/stm32f7xx_ll_gpio.c ****     LL_AHB1_GRP1_ForceReset(LL_AHB1_GRP1_PERIPH_GPIOF);
 161:Drivers/STM32F7xx_HAL_Driver/Src/stm32f7xx_ll_gpio.c ****     LL_AHB1_GRP1_ReleaseReset(LL_AHB1_GRP1_PERIPH_GPIOF);
 162:Drivers/STM32F7xx_HAL_Driver/Src/stm32f7xx_ll_gpio.c ****   }
 163:Drivers/STM32F7xx_HAL_Driver/Src/stm32f7xx_ll_gpio.c **** #endif /* GPIOF */
 164:Drivers/STM32F7xx_HAL_Driver/Src/stm32f7xx_ll_gpio.c **** #if defined(GPIOG)
 165:Drivers/STM32F7xx_HAL_Driver/Src/stm32f7xx_ll_gpio.c ****   else if (GPIOx == GPIOG)
  57              		.loc 1 165 0
  58 0024 504B     		ldr	r3, .L25+24
  59 0026 9842     		cmp	r0, r3
  60 0028 55D0     		beq	.L20
 166:Drivers/STM32F7xx_HAL_Driver/Src/stm32f7xx_ll_gpio.c ****   {
 167:Drivers/STM32F7xx_HAL_Driver/Src/stm32f7xx_ll_gpio.c ****     LL_AHB1_GRP1_ForceReset(LL_AHB1_GRP1_PERIPH_GPIOG);
 168:Drivers/STM32F7xx_HAL_Driver/Src/stm32f7xx_ll_gpio.c ****     LL_AHB1_GRP1_ReleaseReset(LL_AHB1_GRP1_PERIPH_GPIOG);
 169:Drivers/STM32F7xx_HAL_Driver/Src/stm32f7xx_ll_gpio.c ****   }
ARM GAS  /tmp/cc6sio8H.s 			page 5


 170:Drivers/STM32F7xx_HAL_Driver/Src/stm32f7xx_ll_gpio.c **** #endif /* GPIOG */
 171:Drivers/STM32F7xx_HAL_Driver/Src/stm32f7xx_ll_gpio.c **** #if defined(GPIOH)
 172:Drivers/STM32F7xx_HAL_Driver/Src/stm32f7xx_ll_gpio.c ****   else if (GPIOx == GPIOH)
  61              		.loc 1 172 0
  62 002a 504B     		ldr	r3, .L25+28
  63 002c 9842     		cmp	r0, r3
  64 002e 5ED0     		beq	.L21
 173:Drivers/STM32F7xx_HAL_Driver/Src/stm32f7xx_ll_gpio.c ****   {
 174:Drivers/STM32F7xx_HAL_Driver/Src/stm32f7xx_ll_gpio.c ****     LL_AHB1_GRP1_ForceReset(LL_AHB1_GRP1_PERIPH_GPIOH);
 175:Drivers/STM32F7xx_HAL_Driver/Src/stm32f7xx_ll_gpio.c ****     LL_AHB1_GRP1_ReleaseReset(LL_AHB1_GRP1_PERIPH_GPIOH);
 176:Drivers/STM32F7xx_HAL_Driver/Src/stm32f7xx_ll_gpio.c ****   }
 177:Drivers/STM32F7xx_HAL_Driver/Src/stm32f7xx_ll_gpio.c **** #endif /* GPIOH */
 178:Drivers/STM32F7xx_HAL_Driver/Src/stm32f7xx_ll_gpio.c **** #if defined(GPIOI)
 179:Drivers/STM32F7xx_HAL_Driver/Src/stm32f7xx_ll_gpio.c ****   else if (GPIOx == GPIOI)
  65              		.loc 1 179 0
  66 0030 4F4B     		ldr	r3, .L25+32
  67 0032 9842     		cmp	r0, r3
  68 0034 67D0     		beq	.L22
 180:Drivers/STM32F7xx_HAL_Driver/Src/stm32f7xx_ll_gpio.c ****   {
 181:Drivers/STM32F7xx_HAL_Driver/Src/stm32f7xx_ll_gpio.c ****     LL_AHB1_GRP1_ForceReset(LL_AHB1_GRP1_PERIPH_GPIOI);
 182:Drivers/STM32F7xx_HAL_Driver/Src/stm32f7xx_ll_gpio.c ****     LL_AHB1_GRP1_ReleaseReset(LL_AHB1_GRP1_PERIPH_GPIOI);
 183:Drivers/STM32F7xx_HAL_Driver/Src/stm32f7xx_ll_gpio.c ****   }
 184:Drivers/STM32F7xx_HAL_Driver/Src/stm32f7xx_ll_gpio.c **** #endif /* GPIOI */
 185:Drivers/STM32F7xx_HAL_Driver/Src/stm32f7xx_ll_gpio.c **** #if defined(GPIOJ)
 186:Drivers/STM32F7xx_HAL_Driver/Src/stm32f7xx_ll_gpio.c ****   else if (GPIOx == GPIOJ)
  69              		.loc 1 186 0
  70 0036 4F4B     		ldr	r3, .L25+36
  71 0038 9842     		cmp	r0, r3
  72 003a 70D0     		beq	.L23
 187:Drivers/STM32F7xx_HAL_Driver/Src/stm32f7xx_ll_gpio.c ****   {
 188:Drivers/STM32F7xx_HAL_Driver/Src/stm32f7xx_ll_gpio.c ****     LL_AHB1_GRP1_ForceReset(LL_AHB1_GRP1_PERIPH_GPIOJ);
 189:Drivers/STM32F7xx_HAL_Driver/Src/stm32f7xx_ll_gpio.c ****     LL_AHB1_GRP1_ReleaseReset(LL_AHB1_GRP1_PERIPH_GPIOJ);
 190:Drivers/STM32F7xx_HAL_Driver/Src/stm32f7xx_ll_gpio.c ****   }
 191:Drivers/STM32F7xx_HAL_Driver/Src/stm32f7xx_ll_gpio.c **** #endif /* GPIOJ */
 192:Drivers/STM32F7xx_HAL_Driver/Src/stm32f7xx_ll_gpio.c **** #if defined(GPIOK)
 193:Drivers/STM32F7xx_HAL_Driver/Src/stm32f7xx_ll_gpio.c ****   else if (GPIOx == GPIOK)
  73              		.loc 1 193 0
  74 003c 4E4B     		ldr	r3, .L25+40
  75 003e 9842     		cmp	r0, r3
  76 0040 79D0     		beq	.L24
 194:Drivers/STM32F7xx_HAL_Driver/Src/stm32f7xx_ll_gpio.c ****   {
 195:Drivers/STM32F7xx_HAL_Driver/Src/stm32f7xx_ll_gpio.c ****     LL_AHB1_GRP1_ForceReset(LL_AHB1_GRP1_PERIPH_GPIOK);
 196:Drivers/STM32F7xx_HAL_Driver/Src/stm32f7xx_ll_gpio.c ****     LL_AHB1_GRP1_ReleaseReset(LL_AHB1_GRP1_PERIPH_GPIOK);
 197:Drivers/STM32F7xx_HAL_Driver/Src/stm32f7xx_ll_gpio.c ****   }
 198:Drivers/STM32F7xx_HAL_Driver/Src/stm32f7xx_ll_gpio.c **** #endif /* GPIOK */
 199:Drivers/STM32F7xx_HAL_Driver/Src/stm32f7xx_ll_gpio.c ****   else
 200:Drivers/STM32F7xx_HAL_Driver/Src/stm32f7xx_ll_gpio.c ****   {
 201:Drivers/STM32F7xx_HAL_Driver/Src/stm32f7xx_ll_gpio.c ****     status = ERROR;
  77              		.loc 1 201 0
  78 0042 0020     		movs	r0, #0
  79              	.LVL1:
 202:Drivers/STM32F7xx_HAL_Driver/Src/stm32f7xx_ll_gpio.c ****   }
 203:Drivers/STM32F7xx_HAL_Driver/Src/stm32f7xx_ll_gpio.c **** 
 204:Drivers/STM32F7xx_HAL_Driver/Src/stm32f7xx_ll_gpio.c ****   return (status);
 205:Drivers/STM32F7xx_HAL_Driver/Src/stm32f7xx_ll_gpio.c **** }
  80              		.loc 1 205 0
  81 0044 7047     		bx	lr
ARM GAS  /tmp/cc6sio8H.s 			page 6


  82              	.LVL2:
  83              	.L14:
  84              	.LBB106:
  85              	.LBB107:
  86              		.file 2 "Drivers/STM32F7xx_HAL_Driver/Inc/stm32f7xx_ll_bus.h"
   1:Drivers/STM32F7xx_HAL_Driver/Inc/stm32f7xx_ll_bus.h **** /**
   2:Drivers/STM32F7xx_HAL_Driver/Inc/stm32f7xx_ll_bus.h ****   ******************************************************************************
   3:Drivers/STM32F7xx_HAL_Driver/Inc/stm32f7xx_ll_bus.h ****   * @file    stm32f7xx_ll_bus.h
   4:Drivers/STM32F7xx_HAL_Driver/Inc/stm32f7xx_ll_bus.h ****   * @author  MCD Application Team
   5:Drivers/STM32F7xx_HAL_Driver/Inc/stm32f7xx_ll_bus.h ****   * @brief   Header file of BUS LL module.
   6:Drivers/STM32F7xx_HAL_Driver/Inc/stm32f7xx_ll_bus.h **** 
   7:Drivers/STM32F7xx_HAL_Driver/Inc/stm32f7xx_ll_bus.h ****   @verbatim
   8:Drivers/STM32F7xx_HAL_Driver/Inc/stm32f7xx_ll_bus.h ****                       ##### RCC Limitations #####
   9:Drivers/STM32F7xx_HAL_Driver/Inc/stm32f7xx_ll_bus.h ****   ==============================================================================
  10:Drivers/STM32F7xx_HAL_Driver/Inc/stm32f7xx_ll_bus.h ****     [..]  
  11:Drivers/STM32F7xx_HAL_Driver/Inc/stm32f7xx_ll_bus.h ****       A delay between an RCC peripheral clock enable and the effective peripheral 
  12:Drivers/STM32F7xx_HAL_Driver/Inc/stm32f7xx_ll_bus.h ****       enabling should be taken into account in order to manage the peripheral read/write 
  13:Drivers/STM32F7xx_HAL_Driver/Inc/stm32f7xx_ll_bus.h ****       from/to registers.
  14:Drivers/STM32F7xx_HAL_Driver/Inc/stm32f7xx_ll_bus.h ****       (+) This delay depends on the peripheral mapping.
  15:Drivers/STM32F7xx_HAL_Driver/Inc/stm32f7xx_ll_bus.h ****         (++) AHB & APB peripherals, 1 dummy read is necessary
  16:Drivers/STM32F7xx_HAL_Driver/Inc/stm32f7xx_ll_bus.h **** 
  17:Drivers/STM32F7xx_HAL_Driver/Inc/stm32f7xx_ll_bus.h ****     [..]  
  18:Drivers/STM32F7xx_HAL_Driver/Inc/stm32f7xx_ll_bus.h ****       Workarounds:
  19:Drivers/STM32F7xx_HAL_Driver/Inc/stm32f7xx_ll_bus.h ****       (#) For AHB & APB peripherals, a dummy read to the peripheral register has been
  20:Drivers/STM32F7xx_HAL_Driver/Inc/stm32f7xx_ll_bus.h ****           inserted in each LL_{BUS}_GRP{x}_EnableClock() function.
  21:Drivers/STM32F7xx_HAL_Driver/Inc/stm32f7xx_ll_bus.h **** 
  22:Drivers/STM32F7xx_HAL_Driver/Inc/stm32f7xx_ll_bus.h ****   @endverbatim
  23:Drivers/STM32F7xx_HAL_Driver/Inc/stm32f7xx_ll_bus.h ****   ******************************************************************************
  24:Drivers/STM32F7xx_HAL_Driver/Inc/stm32f7xx_ll_bus.h ****   * @attention
  25:Drivers/STM32F7xx_HAL_Driver/Inc/stm32f7xx_ll_bus.h ****   *
  26:Drivers/STM32F7xx_HAL_Driver/Inc/stm32f7xx_ll_bus.h ****   * <h2><center>&copy; COPYRIGHT(c) 2017 STMicroelectronics</center></h2>
  27:Drivers/STM32F7xx_HAL_Driver/Inc/stm32f7xx_ll_bus.h ****   *
  28:Drivers/STM32F7xx_HAL_Driver/Inc/stm32f7xx_ll_bus.h ****   * Redistribution and use in source and binary forms, with or without modification,
  29:Drivers/STM32F7xx_HAL_Driver/Inc/stm32f7xx_ll_bus.h ****   * are permitted provided that the following conditions are met:
  30:Drivers/STM32F7xx_HAL_Driver/Inc/stm32f7xx_ll_bus.h ****   *   1. Redistributions of source code must retain the above copyright notice,
  31:Drivers/STM32F7xx_HAL_Driver/Inc/stm32f7xx_ll_bus.h ****   *      this list of conditions and the following disclaimer.
  32:Drivers/STM32F7xx_HAL_Driver/Inc/stm32f7xx_ll_bus.h ****   *   2. Redistributions in binary form must reproduce the above copyright notice,
  33:Drivers/STM32F7xx_HAL_Driver/Inc/stm32f7xx_ll_bus.h ****   *      this list of conditions and the following disclaimer in the documentation
  34:Drivers/STM32F7xx_HAL_Driver/Inc/stm32f7xx_ll_bus.h ****   *      and/or other materials provided with the distribution.
  35:Drivers/STM32F7xx_HAL_Driver/Inc/stm32f7xx_ll_bus.h ****   *   3. Neither the name of STMicroelectronics nor the names of its contributors
  36:Drivers/STM32F7xx_HAL_Driver/Inc/stm32f7xx_ll_bus.h ****   *      may be used to endorse or promote products derived from this software
  37:Drivers/STM32F7xx_HAL_Driver/Inc/stm32f7xx_ll_bus.h ****   *      without specific prior written permission.
  38:Drivers/STM32F7xx_HAL_Driver/Inc/stm32f7xx_ll_bus.h ****   *
  39:Drivers/STM32F7xx_HAL_Driver/Inc/stm32f7xx_ll_bus.h ****   * THIS SOFTWARE IS PROVIDED BY THE COPYRIGHT HOLDERS AND CONTRIBUTORS "AS IS"
  40:Drivers/STM32F7xx_HAL_Driver/Inc/stm32f7xx_ll_bus.h ****   * AND ANY EXPRESS OR IMPLIED WARRANTIES, INCLUDING, BUT NOT LIMITED TO, THE
  41:Drivers/STM32F7xx_HAL_Driver/Inc/stm32f7xx_ll_bus.h ****   * IMPLIED WARRANTIES OF MERCHANTABILITY AND FITNESS FOR A PARTICULAR PURPOSE ARE
  42:Drivers/STM32F7xx_HAL_Driver/Inc/stm32f7xx_ll_bus.h ****   * DISCLAIMED. IN NO EVENT SHALL THE COPYRIGHT HOLDER OR CONTRIBUTORS BE LIABLE
  43:Drivers/STM32F7xx_HAL_Driver/Inc/stm32f7xx_ll_bus.h ****   * FOR ANY DIRECT, INDIRECT, INCIDENTAL, SPECIAL, EXEMPLARY, OR CONSEQUENTIAL
  44:Drivers/STM32F7xx_HAL_Driver/Inc/stm32f7xx_ll_bus.h ****   * DAMAGES (INCLUDING, BUT NOT LIMITED TO, PROCUREMENT OF SUBSTITUTE GOODS OR
  45:Drivers/STM32F7xx_HAL_Driver/Inc/stm32f7xx_ll_bus.h ****   * SERVICES; LOSS OF USE, DATA, OR PROFITS; OR BUSINESS INTERRUPTION) HOWEVER
  46:Drivers/STM32F7xx_HAL_Driver/Inc/stm32f7xx_ll_bus.h ****   * CAUSED AND ON ANY THEORY OF LIABILITY, WHETHER IN CONTRACT, STRICT LIABILITY,
  47:Drivers/STM32F7xx_HAL_Driver/Inc/stm32f7xx_ll_bus.h ****   * OR TORT (INCLUDING NEGLIGENCE OR OTHERWISE) ARISING IN ANY WAY OUT OF THE USE
  48:Drivers/STM32F7xx_HAL_Driver/Inc/stm32f7xx_ll_bus.h ****   * OF THIS SOFTWARE, EVEN IF ADVISED OF THE POSSIBILITY OF SUCH DAMAGE.
  49:Drivers/STM32F7xx_HAL_Driver/Inc/stm32f7xx_ll_bus.h ****   *
  50:Drivers/STM32F7xx_HAL_Driver/Inc/stm32f7xx_ll_bus.h ****   ******************************************************************************
  51:Drivers/STM32F7xx_HAL_Driver/Inc/stm32f7xx_ll_bus.h ****   */
  52:Drivers/STM32F7xx_HAL_Driver/Inc/stm32f7xx_ll_bus.h **** 
ARM GAS  /tmp/cc6sio8H.s 			page 7


  53:Drivers/STM32F7xx_HAL_Driver/Inc/stm32f7xx_ll_bus.h **** /* Define to prevent recursive inclusion -------------------------------------*/
  54:Drivers/STM32F7xx_HAL_Driver/Inc/stm32f7xx_ll_bus.h **** #ifndef __STM32F7xx_LL_BUS_H
  55:Drivers/STM32F7xx_HAL_Driver/Inc/stm32f7xx_ll_bus.h **** #define __STM32F7xx_LL_BUS_H
  56:Drivers/STM32F7xx_HAL_Driver/Inc/stm32f7xx_ll_bus.h **** 
  57:Drivers/STM32F7xx_HAL_Driver/Inc/stm32f7xx_ll_bus.h **** #ifdef __cplusplus
  58:Drivers/STM32F7xx_HAL_Driver/Inc/stm32f7xx_ll_bus.h **** extern "C" {
  59:Drivers/STM32F7xx_HAL_Driver/Inc/stm32f7xx_ll_bus.h **** #endif
  60:Drivers/STM32F7xx_HAL_Driver/Inc/stm32f7xx_ll_bus.h **** 
  61:Drivers/STM32F7xx_HAL_Driver/Inc/stm32f7xx_ll_bus.h **** /* Includes ------------------------------------------------------------------*/
  62:Drivers/STM32F7xx_HAL_Driver/Inc/stm32f7xx_ll_bus.h **** #include "stm32f7xx.h"
  63:Drivers/STM32F7xx_HAL_Driver/Inc/stm32f7xx_ll_bus.h **** 
  64:Drivers/STM32F7xx_HAL_Driver/Inc/stm32f7xx_ll_bus.h **** /** @addtogroup STM32F7xx_LL_Driver
  65:Drivers/STM32F7xx_HAL_Driver/Inc/stm32f7xx_ll_bus.h ****   * @{
  66:Drivers/STM32F7xx_HAL_Driver/Inc/stm32f7xx_ll_bus.h ****   */
  67:Drivers/STM32F7xx_HAL_Driver/Inc/stm32f7xx_ll_bus.h **** 
  68:Drivers/STM32F7xx_HAL_Driver/Inc/stm32f7xx_ll_bus.h **** #if defined(RCC)
  69:Drivers/STM32F7xx_HAL_Driver/Inc/stm32f7xx_ll_bus.h **** 
  70:Drivers/STM32F7xx_HAL_Driver/Inc/stm32f7xx_ll_bus.h **** /** @defgroup BUS_LL BUS
  71:Drivers/STM32F7xx_HAL_Driver/Inc/stm32f7xx_ll_bus.h ****   * @{
  72:Drivers/STM32F7xx_HAL_Driver/Inc/stm32f7xx_ll_bus.h ****   */
  73:Drivers/STM32F7xx_HAL_Driver/Inc/stm32f7xx_ll_bus.h **** 
  74:Drivers/STM32F7xx_HAL_Driver/Inc/stm32f7xx_ll_bus.h **** /* Private types -------------------------------------------------------------*/
  75:Drivers/STM32F7xx_HAL_Driver/Inc/stm32f7xx_ll_bus.h **** /* Private variables ---------------------------------------------------------*/
  76:Drivers/STM32F7xx_HAL_Driver/Inc/stm32f7xx_ll_bus.h **** /* Private constants ---------------------------------------------------------*/
  77:Drivers/STM32F7xx_HAL_Driver/Inc/stm32f7xx_ll_bus.h **** /* Private macros ------------------------------------------------------------*/
  78:Drivers/STM32F7xx_HAL_Driver/Inc/stm32f7xx_ll_bus.h **** /* Exported types ------------------------------------------------------------*/
  79:Drivers/STM32F7xx_HAL_Driver/Inc/stm32f7xx_ll_bus.h **** /* Exported constants --------------------------------------------------------*/
  80:Drivers/STM32F7xx_HAL_Driver/Inc/stm32f7xx_ll_bus.h **** /** @defgroup BUS_LL_Exported_Constants BUS Exported Constants
  81:Drivers/STM32F7xx_HAL_Driver/Inc/stm32f7xx_ll_bus.h ****   * @{
  82:Drivers/STM32F7xx_HAL_Driver/Inc/stm32f7xx_ll_bus.h ****   */
  83:Drivers/STM32F7xx_HAL_Driver/Inc/stm32f7xx_ll_bus.h **** 
  84:Drivers/STM32F7xx_HAL_Driver/Inc/stm32f7xx_ll_bus.h **** /** @defgroup BUS_LL_EC_AHB1_GRP1_PERIPH  AHB1 GRP1 PERIPH
  85:Drivers/STM32F7xx_HAL_Driver/Inc/stm32f7xx_ll_bus.h ****   * @{
  86:Drivers/STM32F7xx_HAL_Driver/Inc/stm32f7xx_ll_bus.h ****   */
  87:Drivers/STM32F7xx_HAL_Driver/Inc/stm32f7xx_ll_bus.h **** #define LL_AHB1_GRP1_PERIPH_ALL             0xFFFFFFFFU
  88:Drivers/STM32F7xx_HAL_Driver/Inc/stm32f7xx_ll_bus.h **** #define LL_AHB1_GRP1_PERIPH_GPIOA           RCC_AHB1ENR_GPIOAEN
  89:Drivers/STM32F7xx_HAL_Driver/Inc/stm32f7xx_ll_bus.h **** #define LL_AHB1_GRP1_PERIPH_GPIOB           RCC_AHB1ENR_GPIOBEN
  90:Drivers/STM32F7xx_HAL_Driver/Inc/stm32f7xx_ll_bus.h **** #define LL_AHB1_GRP1_PERIPH_GPIOC           RCC_AHB1ENR_GPIOCEN
  91:Drivers/STM32F7xx_HAL_Driver/Inc/stm32f7xx_ll_bus.h **** #define LL_AHB1_GRP1_PERIPH_GPIOD           RCC_AHB1ENR_GPIODEN
  92:Drivers/STM32F7xx_HAL_Driver/Inc/stm32f7xx_ll_bus.h **** #define LL_AHB1_GRP1_PERIPH_GPIOE           RCC_AHB1ENR_GPIOEEN
  93:Drivers/STM32F7xx_HAL_Driver/Inc/stm32f7xx_ll_bus.h **** #define LL_AHB1_GRP1_PERIPH_GPIOF           RCC_AHB1ENR_GPIOFEN
  94:Drivers/STM32F7xx_HAL_Driver/Inc/stm32f7xx_ll_bus.h **** #define LL_AHB1_GRP1_PERIPH_GPIOG           RCC_AHB1ENR_GPIOGEN
  95:Drivers/STM32F7xx_HAL_Driver/Inc/stm32f7xx_ll_bus.h **** #define LL_AHB1_GRP1_PERIPH_GPIOH           RCC_AHB1ENR_GPIOHEN
  96:Drivers/STM32F7xx_HAL_Driver/Inc/stm32f7xx_ll_bus.h **** #define LL_AHB1_GRP1_PERIPH_GPIOI           RCC_AHB1ENR_GPIOIEN
  97:Drivers/STM32F7xx_HAL_Driver/Inc/stm32f7xx_ll_bus.h **** #if defined(GPIOJ)
  98:Drivers/STM32F7xx_HAL_Driver/Inc/stm32f7xx_ll_bus.h **** #define LL_AHB1_GRP1_PERIPH_GPIOJ           RCC_AHB1ENR_GPIOJEN
  99:Drivers/STM32F7xx_HAL_Driver/Inc/stm32f7xx_ll_bus.h **** #endif /* GPIOJ */
 100:Drivers/STM32F7xx_HAL_Driver/Inc/stm32f7xx_ll_bus.h **** #if defined(GPIOK)
 101:Drivers/STM32F7xx_HAL_Driver/Inc/stm32f7xx_ll_bus.h **** #define LL_AHB1_GRP1_PERIPH_GPIOK           RCC_AHB1ENR_GPIOKEN
 102:Drivers/STM32F7xx_HAL_Driver/Inc/stm32f7xx_ll_bus.h **** #endif /* GPIOK */
 103:Drivers/STM32F7xx_HAL_Driver/Inc/stm32f7xx_ll_bus.h **** #define LL_AHB1_GRP1_PERIPH_CRC             RCC_AHB1ENR_CRCEN
 104:Drivers/STM32F7xx_HAL_Driver/Inc/stm32f7xx_ll_bus.h **** #define LL_AHB1_GRP1_PERIPH_BKPSRAM         RCC_AHB1ENR_BKPSRAMEN
 105:Drivers/STM32F7xx_HAL_Driver/Inc/stm32f7xx_ll_bus.h **** #define LL_AHB1_GRP1_PERIPH_DTCMRAM         RCC_AHB1ENR_DTCMRAMEN
 106:Drivers/STM32F7xx_HAL_Driver/Inc/stm32f7xx_ll_bus.h **** #define LL_AHB1_GRP1_PERIPH_DMA1            RCC_AHB1ENR_DMA1EN
 107:Drivers/STM32F7xx_HAL_Driver/Inc/stm32f7xx_ll_bus.h **** #define LL_AHB1_GRP1_PERIPH_DMA2            RCC_AHB1ENR_DMA2EN
 108:Drivers/STM32F7xx_HAL_Driver/Inc/stm32f7xx_ll_bus.h **** #if defined(DMA2D)
 109:Drivers/STM32F7xx_HAL_Driver/Inc/stm32f7xx_ll_bus.h **** #define LL_AHB1_GRP1_PERIPH_DMA2D           RCC_AHB1ENR_DMA2DEN
ARM GAS  /tmp/cc6sio8H.s 			page 8


 110:Drivers/STM32F7xx_HAL_Driver/Inc/stm32f7xx_ll_bus.h **** #endif /* DMA2D */
 111:Drivers/STM32F7xx_HAL_Driver/Inc/stm32f7xx_ll_bus.h **** #if defined(ETH)
 112:Drivers/STM32F7xx_HAL_Driver/Inc/stm32f7xx_ll_bus.h **** #define LL_AHB1_GRP1_PERIPH_ETHMAC          RCC_AHB1ENR_ETHMACEN
 113:Drivers/STM32F7xx_HAL_Driver/Inc/stm32f7xx_ll_bus.h **** #define LL_AHB1_GRP1_PERIPH_ETHMACTX        RCC_AHB1ENR_ETHMACTXEN
 114:Drivers/STM32F7xx_HAL_Driver/Inc/stm32f7xx_ll_bus.h **** #define LL_AHB1_GRP1_PERIPH_ETHMACRX        RCC_AHB1ENR_ETHMACRXEN
 115:Drivers/STM32F7xx_HAL_Driver/Inc/stm32f7xx_ll_bus.h **** #define LL_AHB1_GRP1_PERIPH_ETHMACPTP       RCC_AHB1ENR_ETHMACPTPEN
 116:Drivers/STM32F7xx_HAL_Driver/Inc/stm32f7xx_ll_bus.h **** #endif /* ETH */
 117:Drivers/STM32F7xx_HAL_Driver/Inc/stm32f7xx_ll_bus.h **** #define LL_AHB1_GRP1_PERIPH_OTGHS           RCC_AHB1ENR_OTGHSEN
 118:Drivers/STM32F7xx_HAL_Driver/Inc/stm32f7xx_ll_bus.h **** #define LL_AHB1_GRP1_PERIPH_OTGHSULPI       RCC_AHB1ENR_OTGHSULPIEN
 119:Drivers/STM32F7xx_HAL_Driver/Inc/stm32f7xx_ll_bus.h **** #define LL_AHB1_GRP1_PERIPH_AXI             RCC_AHB1LPENR_AXILPEN
 120:Drivers/STM32F7xx_HAL_Driver/Inc/stm32f7xx_ll_bus.h **** #define LL_AHB1_GRP1_PERIPH_FLITF           RCC_AHB1LPENR_FLITFLPEN
 121:Drivers/STM32F7xx_HAL_Driver/Inc/stm32f7xx_ll_bus.h **** #define LL_AHB1_GRP1_PERIPH_SRAM1           RCC_AHB1LPENR_SRAM1LPEN
 122:Drivers/STM32F7xx_HAL_Driver/Inc/stm32f7xx_ll_bus.h **** #define LL_AHB1_GRP1_PERIPH_SRAM2           RCC_AHB1LPENR_SRAM2LPEN
 123:Drivers/STM32F7xx_HAL_Driver/Inc/stm32f7xx_ll_bus.h **** /**
 124:Drivers/STM32F7xx_HAL_Driver/Inc/stm32f7xx_ll_bus.h ****   * @}
 125:Drivers/STM32F7xx_HAL_Driver/Inc/stm32f7xx_ll_bus.h ****   */
 126:Drivers/STM32F7xx_HAL_Driver/Inc/stm32f7xx_ll_bus.h **** 
 127:Drivers/STM32F7xx_HAL_Driver/Inc/stm32f7xx_ll_bus.h **** /** @defgroup BUS_LL_EC_AHB2_GRP1_PERIPH  AHB2 GRP1 PERIPH
 128:Drivers/STM32F7xx_HAL_Driver/Inc/stm32f7xx_ll_bus.h ****   * @{
 129:Drivers/STM32F7xx_HAL_Driver/Inc/stm32f7xx_ll_bus.h ****   */
 130:Drivers/STM32F7xx_HAL_Driver/Inc/stm32f7xx_ll_bus.h **** #define LL_AHB2_GRP1_PERIPH_ALL            0xFFFFFFFFU
 131:Drivers/STM32F7xx_HAL_Driver/Inc/stm32f7xx_ll_bus.h **** #if defined(DCMI)
 132:Drivers/STM32F7xx_HAL_Driver/Inc/stm32f7xx_ll_bus.h **** #define LL_AHB2_GRP1_PERIPH_DCMI           RCC_AHB2ENR_DCMIEN
 133:Drivers/STM32F7xx_HAL_Driver/Inc/stm32f7xx_ll_bus.h **** #endif /* DCMI */
 134:Drivers/STM32F7xx_HAL_Driver/Inc/stm32f7xx_ll_bus.h **** #if defined(JPEG)
 135:Drivers/STM32F7xx_HAL_Driver/Inc/stm32f7xx_ll_bus.h **** #define LL_AHB2_GRP1_PERIPH_JPEG           RCC_AHB2ENR_JPEGEN
 136:Drivers/STM32F7xx_HAL_Driver/Inc/stm32f7xx_ll_bus.h **** #endif /* JPEG */
 137:Drivers/STM32F7xx_HAL_Driver/Inc/stm32f7xx_ll_bus.h **** #if defined(CRYP) 
 138:Drivers/STM32F7xx_HAL_Driver/Inc/stm32f7xx_ll_bus.h **** #define LL_AHB2_GRP1_PERIPH_CRYP           RCC_AHB2ENR_CRYPEN
 139:Drivers/STM32F7xx_HAL_Driver/Inc/stm32f7xx_ll_bus.h **** #endif /* CRYP */
 140:Drivers/STM32F7xx_HAL_Driver/Inc/stm32f7xx_ll_bus.h **** #if defined(AES)
 141:Drivers/STM32F7xx_HAL_Driver/Inc/stm32f7xx_ll_bus.h **** #define LL_AHB2_GRP1_PERIPH_AES            RCC_AHB2ENR_AESEN
 142:Drivers/STM32F7xx_HAL_Driver/Inc/stm32f7xx_ll_bus.h **** #endif /* AES */
 143:Drivers/STM32F7xx_HAL_Driver/Inc/stm32f7xx_ll_bus.h **** #if defined(HASH)
 144:Drivers/STM32F7xx_HAL_Driver/Inc/stm32f7xx_ll_bus.h **** #define LL_AHB2_GRP1_PERIPH_HASH           RCC_AHB2ENR_HASHEN
 145:Drivers/STM32F7xx_HAL_Driver/Inc/stm32f7xx_ll_bus.h **** #endif /* HASH */
 146:Drivers/STM32F7xx_HAL_Driver/Inc/stm32f7xx_ll_bus.h **** #define LL_AHB2_GRP1_PERIPH_RNG            RCC_AHB2ENR_RNGEN
 147:Drivers/STM32F7xx_HAL_Driver/Inc/stm32f7xx_ll_bus.h **** #define LL_AHB2_GRP1_PERIPH_OTGFS          RCC_AHB2ENR_OTGFSEN
 148:Drivers/STM32F7xx_HAL_Driver/Inc/stm32f7xx_ll_bus.h **** /**
 149:Drivers/STM32F7xx_HAL_Driver/Inc/stm32f7xx_ll_bus.h ****   * @}
 150:Drivers/STM32F7xx_HAL_Driver/Inc/stm32f7xx_ll_bus.h ****   */
 151:Drivers/STM32F7xx_HAL_Driver/Inc/stm32f7xx_ll_bus.h **** 
 152:Drivers/STM32F7xx_HAL_Driver/Inc/stm32f7xx_ll_bus.h **** /** @defgroup BUS_LL_EC_AHB3_GRP1_PERIPH  AHB3 GRP1 PERIPH
 153:Drivers/STM32F7xx_HAL_Driver/Inc/stm32f7xx_ll_bus.h ****   * @{
 154:Drivers/STM32F7xx_HAL_Driver/Inc/stm32f7xx_ll_bus.h ****   */
 155:Drivers/STM32F7xx_HAL_Driver/Inc/stm32f7xx_ll_bus.h **** #define LL_AHB3_GRP1_PERIPH_ALL            0xFFFFFFFFU
 156:Drivers/STM32F7xx_HAL_Driver/Inc/stm32f7xx_ll_bus.h **** #define LL_AHB3_GRP1_PERIPH_FMC            RCC_AHB3ENR_FMCEN
 157:Drivers/STM32F7xx_HAL_Driver/Inc/stm32f7xx_ll_bus.h **** #define LL_AHB3_GRP1_PERIPH_QSPI           RCC_AHB3ENR_QSPIEN
 158:Drivers/STM32F7xx_HAL_Driver/Inc/stm32f7xx_ll_bus.h **** /**
 159:Drivers/STM32F7xx_HAL_Driver/Inc/stm32f7xx_ll_bus.h ****   * @}
 160:Drivers/STM32F7xx_HAL_Driver/Inc/stm32f7xx_ll_bus.h ****   */
 161:Drivers/STM32F7xx_HAL_Driver/Inc/stm32f7xx_ll_bus.h **** 
 162:Drivers/STM32F7xx_HAL_Driver/Inc/stm32f7xx_ll_bus.h **** /** @defgroup BUS_LL_EC_APB1_GRP1_PERIPH  APB1 GRP1 PERIPH
 163:Drivers/STM32F7xx_HAL_Driver/Inc/stm32f7xx_ll_bus.h ****   * @{
 164:Drivers/STM32F7xx_HAL_Driver/Inc/stm32f7xx_ll_bus.h ****   */
 165:Drivers/STM32F7xx_HAL_Driver/Inc/stm32f7xx_ll_bus.h **** #define LL_APB1_GRP1_PERIPH_ALL            0xFFFFFFFFU
 166:Drivers/STM32F7xx_HAL_Driver/Inc/stm32f7xx_ll_bus.h **** #define LL_APB1_GRP1_PERIPH_TIM2           RCC_APB1ENR_TIM2EN
ARM GAS  /tmp/cc6sio8H.s 			page 9


 167:Drivers/STM32F7xx_HAL_Driver/Inc/stm32f7xx_ll_bus.h **** #define LL_APB1_GRP1_PERIPH_TIM3           RCC_APB1ENR_TIM3EN
 168:Drivers/STM32F7xx_HAL_Driver/Inc/stm32f7xx_ll_bus.h **** #define LL_APB1_GRP1_PERIPH_TIM4           RCC_APB1ENR_TIM4EN
 169:Drivers/STM32F7xx_HAL_Driver/Inc/stm32f7xx_ll_bus.h **** #define LL_APB1_GRP1_PERIPH_TIM5           RCC_APB1ENR_TIM5EN
 170:Drivers/STM32F7xx_HAL_Driver/Inc/stm32f7xx_ll_bus.h **** #define LL_APB1_GRP1_PERIPH_TIM6           RCC_APB1ENR_TIM6EN
 171:Drivers/STM32F7xx_HAL_Driver/Inc/stm32f7xx_ll_bus.h **** #define LL_APB1_GRP1_PERIPH_TIM7           RCC_APB1ENR_TIM7EN
 172:Drivers/STM32F7xx_HAL_Driver/Inc/stm32f7xx_ll_bus.h **** #define LL_APB1_GRP1_PERIPH_TIM12          RCC_APB1ENR_TIM12EN
 173:Drivers/STM32F7xx_HAL_Driver/Inc/stm32f7xx_ll_bus.h **** #define LL_APB1_GRP1_PERIPH_TIM13          RCC_APB1ENR_TIM13EN
 174:Drivers/STM32F7xx_HAL_Driver/Inc/stm32f7xx_ll_bus.h **** #define LL_APB1_GRP1_PERIPH_TIM14          RCC_APB1ENR_TIM14EN
 175:Drivers/STM32F7xx_HAL_Driver/Inc/stm32f7xx_ll_bus.h **** #define LL_APB1_GRP1_PERIPH_LPTIM1         RCC_APB1ENR_LPTIM1EN
 176:Drivers/STM32F7xx_HAL_Driver/Inc/stm32f7xx_ll_bus.h **** #define LL_APB1_GRP1_PERIPH_WWDG           RCC_APB1ENR_WWDGEN
 177:Drivers/STM32F7xx_HAL_Driver/Inc/stm32f7xx_ll_bus.h **** #define LL_APB1_GRP1_PERIPH_SPI2           RCC_APB1ENR_SPI2EN
 178:Drivers/STM32F7xx_HAL_Driver/Inc/stm32f7xx_ll_bus.h **** #define LL_APB1_GRP1_PERIPH_SPI3           RCC_APB1ENR_SPI3EN
 179:Drivers/STM32F7xx_HAL_Driver/Inc/stm32f7xx_ll_bus.h **** #if defined(SPDIFRX)
 180:Drivers/STM32F7xx_HAL_Driver/Inc/stm32f7xx_ll_bus.h **** #define LL_APB1_GRP1_PERIPH_SPDIFRX        RCC_APB1ENR_SPDIFRXEN
 181:Drivers/STM32F7xx_HAL_Driver/Inc/stm32f7xx_ll_bus.h **** #endif /* SPDIFRX */
 182:Drivers/STM32F7xx_HAL_Driver/Inc/stm32f7xx_ll_bus.h **** #define LL_APB1_GRP1_PERIPH_USART2         RCC_APB1ENR_USART2EN
 183:Drivers/STM32F7xx_HAL_Driver/Inc/stm32f7xx_ll_bus.h **** #define LL_APB1_GRP1_PERIPH_USART3         RCC_APB1ENR_USART3EN
 184:Drivers/STM32F7xx_HAL_Driver/Inc/stm32f7xx_ll_bus.h **** #define LL_APB1_GRP1_PERIPH_UART4          RCC_APB1ENR_UART4EN
 185:Drivers/STM32F7xx_HAL_Driver/Inc/stm32f7xx_ll_bus.h **** #define LL_APB1_GRP1_PERIPH_UART5          RCC_APB1ENR_UART5EN
 186:Drivers/STM32F7xx_HAL_Driver/Inc/stm32f7xx_ll_bus.h **** #define LL_APB1_GRP1_PERIPH_I2C1           RCC_APB1ENR_I2C1EN
 187:Drivers/STM32F7xx_HAL_Driver/Inc/stm32f7xx_ll_bus.h **** #define LL_APB1_GRP1_PERIPH_I2C2           RCC_APB1ENR_I2C2EN
 188:Drivers/STM32F7xx_HAL_Driver/Inc/stm32f7xx_ll_bus.h **** #define LL_APB1_GRP1_PERIPH_I2C3           RCC_APB1ENR_I2C3EN
 189:Drivers/STM32F7xx_HAL_Driver/Inc/stm32f7xx_ll_bus.h **** #if defined(I2C4)
 190:Drivers/STM32F7xx_HAL_Driver/Inc/stm32f7xx_ll_bus.h **** #define LL_APB1_GRP1_PERIPH_I2C4           RCC_APB1ENR_I2C4EN
 191:Drivers/STM32F7xx_HAL_Driver/Inc/stm32f7xx_ll_bus.h **** #endif /* I2C4 */
 192:Drivers/STM32F7xx_HAL_Driver/Inc/stm32f7xx_ll_bus.h **** #define LL_APB1_GRP1_PERIPH_CAN1           RCC_APB1ENR_CAN1EN
 193:Drivers/STM32F7xx_HAL_Driver/Inc/stm32f7xx_ll_bus.h **** #if defined(CAN2)
 194:Drivers/STM32F7xx_HAL_Driver/Inc/stm32f7xx_ll_bus.h **** #define LL_APB1_GRP1_PERIPH_CAN2           RCC_APB1ENR_CAN2EN
 195:Drivers/STM32F7xx_HAL_Driver/Inc/stm32f7xx_ll_bus.h **** #endif /* CAN2 */
 196:Drivers/STM32F7xx_HAL_Driver/Inc/stm32f7xx_ll_bus.h **** #if defined(CAN3)
 197:Drivers/STM32F7xx_HAL_Driver/Inc/stm32f7xx_ll_bus.h **** #define LL_APB1_GRP1_PERIPH_CAN3           RCC_APB1ENR_CAN3EN
 198:Drivers/STM32F7xx_HAL_Driver/Inc/stm32f7xx_ll_bus.h **** #endif /* CAN3 */
 199:Drivers/STM32F7xx_HAL_Driver/Inc/stm32f7xx_ll_bus.h **** #if defined(CEC)
 200:Drivers/STM32F7xx_HAL_Driver/Inc/stm32f7xx_ll_bus.h **** #define LL_APB1_GRP1_PERIPH_CEC            RCC_APB1ENR_CECEN
 201:Drivers/STM32F7xx_HAL_Driver/Inc/stm32f7xx_ll_bus.h **** #endif /* CEC */
 202:Drivers/STM32F7xx_HAL_Driver/Inc/stm32f7xx_ll_bus.h **** #define LL_APB1_GRP1_PERIPH_PWR            RCC_APB1ENR_PWREN
 203:Drivers/STM32F7xx_HAL_Driver/Inc/stm32f7xx_ll_bus.h **** #define LL_APB1_GRP1_PERIPH_DAC1           RCC_APB1ENR_DACEN
 204:Drivers/STM32F7xx_HAL_Driver/Inc/stm32f7xx_ll_bus.h **** #define LL_APB1_GRP1_PERIPH_UART7          RCC_APB1ENR_UART7EN
 205:Drivers/STM32F7xx_HAL_Driver/Inc/stm32f7xx_ll_bus.h **** #define LL_APB1_GRP1_PERIPH_UART8          RCC_APB1ENR_UART8EN
 206:Drivers/STM32F7xx_HAL_Driver/Inc/stm32f7xx_ll_bus.h **** #if defined(RCC_APB1ENR_RTCEN)
 207:Drivers/STM32F7xx_HAL_Driver/Inc/stm32f7xx_ll_bus.h **** #define LL_APB1_GRP1_PERIPH_RTCAPB         RCC_APB1ENR_RTCEN
 208:Drivers/STM32F7xx_HAL_Driver/Inc/stm32f7xx_ll_bus.h **** #endif /* RCC_APB1ENR_RTCEN */
 209:Drivers/STM32F7xx_HAL_Driver/Inc/stm32f7xx_ll_bus.h **** /**
 210:Drivers/STM32F7xx_HAL_Driver/Inc/stm32f7xx_ll_bus.h ****   * @}
 211:Drivers/STM32F7xx_HAL_Driver/Inc/stm32f7xx_ll_bus.h ****   */
 212:Drivers/STM32F7xx_HAL_Driver/Inc/stm32f7xx_ll_bus.h **** 
 213:Drivers/STM32F7xx_HAL_Driver/Inc/stm32f7xx_ll_bus.h **** /** @defgroup BUS_LL_EC_APB2_GRP1_PERIPH  APB2 GRP1 PERIPH
 214:Drivers/STM32F7xx_HAL_Driver/Inc/stm32f7xx_ll_bus.h ****   * @{
 215:Drivers/STM32F7xx_HAL_Driver/Inc/stm32f7xx_ll_bus.h ****   */
 216:Drivers/STM32F7xx_HAL_Driver/Inc/stm32f7xx_ll_bus.h **** #define LL_APB2_GRP1_PERIPH_ALL          0xFFFFFFFFU
 217:Drivers/STM32F7xx_HAL_Driver/Inc/stm32f7xx_ll_bus.h **** #define LL_APB2_GRP1_PERIPH_TIM1         RCC_APB2ENR_TIM1EN
 218:Drivers/STM32F7xx_HAL_Driver/Inc/stm32f7xx_ll_bus.h **** #define LL_APB2_GRP1_PERIPH_TIM8         RCC_APB2ENR_TIM8EN
 219:Drivers/STM32F7xx_HAL_Driver/Inc/stm32f7xx_ll_bus.h **** #define LL_APB2_GRP1_PERIPH_USART1       RCC_APB2ENR_USART1EN
 220:Drivers/STM32F7xx_HAL_Driver/Inc/stm32f7xx_ll_bus.h **** #define LL_APB2_GRP1_PERIPH_USART6       RCC_APB2ENR_USART6EN
 221:Drivers/STM32F7xx_HAL_Driver/Inc/stm32f7xx_ll_bus.h **** #define LL_APB2_GRP1_PERIPH_ADC1         RCC_APB2ENR_ADC1EN
 222:Drivers/STM32F7xx_HAL_Driver/Inc/stm32f7xx_ll_bus.h **** #define LL_APB2_GRP1_PERIPH_ADC2         RCC_APB2ENR_ADC2EN
 223:Drivers/STM32F7xx_HAL_Driver/Inc/stm32f7xx_ll_bus.h **** #define LL_APB2_GRP1_PERIPH_ADC3         RCC_APB2ENR_ADC3EN
ARM GAS  /tmp/cc6sio8H.s 			page 10


 224:Drivers/STM32F7xx_HAL_Driver/Inc/stm32f7xx_ll_bus.h **** #define LL_APB2_GRP1_PERIPH_SDMMC1       RCC_APB2ENR_SDMMC1EN
 225:Drivers/STM32F7xx_HAL_Driver/Inc/stm32f7xx_ll_bus.h **** #if defined(SDMMC2)
 226:Drivers/STM32F7xx_HAL_Driver/Inc/stm32f7xx_ll_bus.h **** #define LL_APB2_GRP1_PERIPH_SDMMC2       RCC_APB2ENR_SDMMC2EN
 227:Drivers/STM32F7xx_HAL_Driver/Inc/stm32f7xx_ll_bus.h **** #endif /* SDMMC2 */
 228:Drivers/STM32F7xx_HAL_Driver/Inc/stm32f7xx_ll_bus.h **** #define LL_APB2_GRP1_PERIPH_SPI1         RCC_APB2ENR_SPI1EN
 229:Drivers/STM32F7xx_HAL_Driver/Inc/stm32f7xx_ll_bus.h **** #define LL_APB2_GRP1_PERIPH_SPI4         RCC_APB2ENR_SPI4EN
 230:Drivers/STM32F7xx_HAL_Driver/Inc/stm32f7xx_ll_bus.h **** #define LL_APB2_GRP1_PERIPH_SYSCFG       RCC_APB2ENR_SYSCFGEN
 231:Drivers/STM32F7xx_HAL_Driver/Inc/stm32f7xx_ll_bus.h **** #define LL_APB2_GRP1_PERIPH_TIM9         RCC_APB2ENR_TIM9EN
 232:Drivers/STM32F7xx_HAL_Driver/Inc/stm32f7xx_ll_bus.h **** #define LL_APB2_GRP1_PERIPH_TIM10        RCC_APB2ENR_TIM10EN
 233:Drivers/STM32F7xx_HAL_Driver/Inc/stm32f7xx_ll_bus.h **** #define LL_APB2_GRP1_PERIPH_TIM11        RCC_APB2ENR_TIM11EN
 234:Drivers/STM32F7xx_HAL_Driver/Inc/stm32f7xx_ll_bus.h **** #define LL_APB2_GRP1_PERIPH_SPI5         RCC_APB2ENR_SPI5EN
 235:Drivers/STM32F7xx_HAL_Driver/Inc/stm32f7xx_ll_bus.h **** #if defined(SPI6)
 236:Drivers/STM32F7xx_HAL_Driver/Inc/stm32f7xx_ll_bus.h **** #define LL_APB2_GRP1_PERIPH_SPI6         RCC_APB2ENR_SPI6EN
 237:Drivers/STM32F7xx_HAL_Driver/Inc/stm32f7xx_ll_bus.h **** #endif /* SPI6 */
 238:Drivers/STM32F7xx_HAL_Driver/Inc/stm32f7xx_ll_bus.h **** #define LL_APB2_GRP1_PERIPH_SAI1         RCC_APB2ENR_SAI1EN
 239:Drivers/STM32F7xx_HAL_Driver/Inc/stm32f7xx_ll_bus.h **** #define LL_APB2_GRP1_PERIPH_SAI2         RCC_APB2ENR_SAI2EN
 240:Drivers/STM32F7xx_HAL_Driver/Inc/stm32f7xx_ll_bus.h **** #if defined(LTDC)
 241:Drivers/STM32F7xx_HAL_Driver/Inc/stm32f7xx_ll_bus.h **** #define LL_APB2_GRP1_PERIPH_LTDC         RCC_APB2ENR_LTDCEN
 242:Drivers/STM32F7xx_HAL_Driver/Inc/stm32f7xx_ll_bus.h **** #endif /* LTDC */
 243:Drivers/STM32F7xx_HAL_Driver/Inc/stm32f7xx_ll_bus.h **** #if defined(DSI)
 244:Drivers/STM32F7xx_HAL_Driver/Inc/stm32f7xx_ll_bus.h **** #define LL_APB2_GRP1_PERIPH_DSI          RCC_APB2ENR_DSIEN
 245:Drivers/STM32F7xx_HAL_Driver/Inc/stm32f7xx_ll_bus.h **** #endif /* DSI */
 246:Drivers/STM32F7xx_HAL_Driver/Inc/stm32f7xx_ll_bus.h **** #if defined(DFSDM1_Channel0)
 247:Drivers/STM32F7xx_HAL_Driver/Inc/stm32f7xx_ll_bus.h **** #define LL_APB2_GRP1_PERIPH_DFSDM1       RCC_APB2ENR_DFSDM1EN
 248:Drivers/STM32F7xx_HAL_Driver/Inc/stm32f7xx_ll_bus.h **** #endif /* DFSDM1_Channel0 */
 249:Drivers/STM32F7xx_HAL_Driver/Inc/stm32f7xx_ll_bus.h **** #if defined(MDIOS)
 250:Drivers/STM32F7xx_HAL_Driver/Inc/stm32f7xx_ll_bus.h **** #define LL_APB2_GRP1_PERIPH_MDIO         RCC_APB2ENR_MDIOEN
 251:Drivers/STM32F7xx_HAL_Driver/Inc/stm32f7xx_ll_bus.h **** #endif /* MDIOS */
 252:Drivers/STM32F7xx_HAL_Driver/Inc/stm32f7xx_ll_bus.h **** #if defined(USB_HS_PHYC)
 253:Drivers/STM32F7xx_HAL_Driver/Inc/stm32f7xx_ll_bus.h **** #define LL_APB2_GRP1_PERIPH_OTGPHYC      RCC_APB2ENR_OTGPHYCEN
 254:Drivers/STM32F7xx_HAL_Driver/Inc/stm32f7xx_ll_bus.h **** #endif /* USB_HS_PHYC */
 255:Drivers/STM32F7xx_HAL_Driver/Inc/stm32f7xx_ll_bus.h **** #define LL_APB2_GRP1_PERIPH_ADC          RCC_APB2RSTR_ADCRST
 256:Drivers/STM32F7xx_HAL_Driver/Inc/stm32f7xx_ll_bus.h **** /**
 257:Drivers/STM32F7xx_HAL_Driver/Inc/stm32f7xx_ll_bus.h ****   * @}
 258:Drivers/STM32F7xx_HAL_Driver/Inc/stm32f7xx_ll_bus.h ****   */
 259:Drivers/STM32F7xx_HAL_Driver/Inc/stm32f7xx_ll_bus.h **** 
 260:Drivers/STM32F7xx_HAL_Driver/Inc/stm32f7xx_ll_bus.h **** /**
 261:Drivers/STM32F7xx_HAL_Driver/Inc/stm32f7xx_ll_bus.h ****   * @}
 262:Drivers/STM32F7xx_HAL_Driver/Inc/stm32f7xx_ll_bus.h ****   */
 263:Drivers/STM32F7xx_HAL_Driver/Inc/stm32f7xx_ll_bus.h **** 
 264:Drivers/STM32F7xx_HAL_Driver/Inc/stm32f7xx_ll_bus.h **** /* Exported macro ------------------------------------------------------------*/
 265:Drivers/STM32F7xx_HAL_Driver/Inc/stm32f7xx_ll_bus.h **** /* Exported functions --------------------------------------------------------*/
 266:Drivers/STM32F7xx_HAL_Driver/Inc/stm32f7xx_ll_bus.h **** /** @defgroup BUS_LL_Exported_Functions BUS Exported Functions
 267:Drivers/STM32F7xx_HAL_Driver/Inc/stm32f7xx_ll_bus.h ****   * @{
 268:Drivers/STM32F7xx_HAL_Driver/Inc/stm32f7xx_ll_bus.h ****   */
 269:Drivers/STM32F7xx_HAL_Driver/Inc/stm32f7xx_ll_bus.h **** 
 270:Drivers/STM32F7xx_HAL_Driver/Inc/stm32f7xx_ll_bus.h **** /** @defgroup BUS_LL_EF_AHB1 AHB1
 271:Drivers/STM32F7xx_HAL_Driver/Inc/stm32f7xx_ll_bus.h ****   * @{
 272:Drivers/STM32F7xx_HAL_Driver/Inc/stm32f7xx_ll_bus.h ****   */
 273:Drivers/STM32F7xx_HAL_Driver/Inc/stm32f7xx_ll_bus.h **** 
 274:Drivers/STM32F7xx_HAL_Driver/Inc/stm32f7xx_ll_bus.h **** /**
 275:Drivers/STM32F7xx_HAL_Driver/Inc/stm32f7xx_ll_bus.h ****   * @brief  Enable AHB1 peripherals clock.
 276:Drivers/STM32F7xx_HAL_Driver/Inc/stm32f7xx_ll_bus.h ****   * @rmtoll AHB1ENR      GPIOAEN            LL_AHB1_GRP1_EnableClock\n
 277:Drivers/STM32F7xx_HAL_Driver/Inc/stm32f7xx_ll_bus.h ****   *         AHB1ENR      GPIOBEN            LL_AHB1_GRP1_EnableClock\n
 278:Drivers/STM32F7xx_HAL_Driver/Inc/stm32f7xx_ll_bus.h ****   *         AHB1ENR      GPIOCEN            LL_AHB1_GRP1_EnableClock\n
 279:Drivers/STM32F7xx_HAL_Driver/Inc/stm32f7xx_ll_bus.h ****   *         AHB1ENR      GPIODEN            LL_AHB1_GRP1_EnableClock\n
 280:Drivers/STM32F7xx_HAL_Driver/Inc/stm32f7xx_ll_bus.h ****   *         AHB1ENR      GPIOEEN            LL_AHB1_GRP1_EnableClock\n
ARM GAS  /tmp/cc6sio8H.s 			page 11


 281:Drivers/STM32F7xx_HAL_Driver/Inc/stm32f7xx_ll_bus.h ****   *         AHB1ENR      GPIOFEN            LL_AHB1_GRP1_EnableClock\n
 282:Drivers/STM32F7xx_HAL_Driver/Inc/stm32f7xx_ll_bus.h ****   *         AHB1ENR      GPIOGEN            LL_AHB1_GRP1_EnableClock\n
 283:Drivers/STM32F7xx_HAL_Driver/Inc/stm32f7xx_ll_bus.h ****   *         AHB1ENR      GPIOHEN            LL_AHB1_GRP1_EnableClock\n
 284:Drivers/STM32F7xx_HAL_Driver/Inc/stm32f7xx_ll_bus.h ****   *         AHB1ENR      GPIOIEN            LL_AHB1_GRP1_EnableClock\n
 285:Drivers/STM32F7xx_HAL_Driver/Inc/stm32f7xx_ll_bus.h ****   *         AHB1ENR      GPIOJEN            LL_AHB1_GRP1_EnableClock\n
 286:Drivers/STM32F7xx_HAL_Driver/Inc/stm32f7xx_ll_bus.h ****   *         AHB1ENR      GPIOKEN            LL_AHB1_GRP1_EnableClock\n
 287:Drivers/STM32F7xx_HAL_Driver/Inc/stm32f7xx_ll_bus.h ****   *         AHB1ENR      CRCEN              LL_AHB1_GRP1_EnableClock\n
 288:Drivers/STM32F7xx_HAL_Driver/Inc/stm32f7xx_ll_bus.h ****   *         AHB1ENR      BKPSRAMEN          LL_AHB1_GRP1_EnableClock\n
 289:Drivers/STM32F7xx_HAL_Driver/Inc/stm32f7xx_ll_bus.h ****   *         AHB1ENR      DTCMRAMEN          LL_AHB1_GRP1_EnableClock\n
 290:Drivers/STM32F7xx_HAL_Driver/Inc/stm32f7xx_ll_bus.h ****   *         AHB1ENR      DMA1EN             LL_AHB1_GRP1_EnableClock\n
 291:Drivers/STM32F7xx_HAL_Driver/Inc/stm32f7xx_ll_bus.h ****   *         AHB1ENR      DMA2EN             LL_AHB1_GRP1_EnableClock\n
 292:Drivers/STM32F7xx_HAL_Driver/Inc/stm32f7xx_ll_bus.h ****   *         AHB1ENR      DMA2DEN            LL_AHB1_GRP1_EnableClock\n
 293:Drivers/STM32F7xx_HAL_Driver/Inc/stm32f7xx_ll_bus.h ****   *         AHB1ENR      ETHMACEN           LL_AHB1_GRP1_EnableClock\n
 294:Drivers/STM32F7xx_HAL_Driver/Inc/stm32f7xx_ll_bus.h ****   *         AHB1ENR      ETHMACTXEN         LL_AHB1_GRP1_EnableClock\n
 295:Drivers/STM32F7xx_HAL_Driver/Inc/stm32f7xx_ll_bus.h ****   *         AHB1ENR      ETHMACRXEN         LL_AHB1_GRP1_EnableClock\n
 296:Drivers/STM32F7xx_HAL_Driver/Inc/stm32f7xx_ll_bus.h ****   *         AHB1ENR      ETHMACPTPEN        LL_AHB1_GRP1_EnableClock\n
 297:Drivers/STM32F7xx_HAL_Driver/Inc/stm32f7xx_ll_bus.h ****   *         AHB1ENR      OTGHSEN            LL_AHB1_GRP1_EnableClock\n
 298:Drivers/STM32F7xx_HAL_Driver/Inc/stm32f7xx_ll_bus.h ****   *         AHB1ENR      OTGHSULPIEN        LL_AHB1_GRP1_EnableClock
 299:Drivers/STM32F7xx_HAL_Driver/Inc/stm32f7xx_ll_bus.h ****   * @param  Periphs This parameter can be a combination of the following values:
 300:Drivers/STM32F7xx_HAL_Driver/Inc/stm32f7xx_ll_bus.h ****   *         @arg @ref LL_AHB1_GRP1_PERIPH_GPIOA
 301:Drivers/STM32F7xx_HAL_Driver/Inc/stm32f7xx_ll_bus.h ****   *         @arg @ref LL_AHB1_GRP1_PERIPH_GPIOB
 302:Drivers/STM32F7xx_HAL_Driver/Inc/stm32f7xx_ll_bus.h ****   *         @arg @ref LL_AHB1_GRP1_PERIPH_GPIOC
 303:Drivers/STM32F7xx_HAL_Driver/Inc/stm32f7xx_ll_bus.h ****   *         @arg @ref LL_AHB1_GRP1_PERIPH_GPIOD
 304:Drivers/STM32F7xx_HAL_Driver/Inc/stm32f7xx_ll_bus.h ****   *         @arg @ref LL_AHB1_GRP1_PERIPH_GPIOE
 305:Drivers/STM32F7xx_HAL_Driver/Inc/stm32f7xx_ll_bus.h ****   *         @arg @ref LL_AHB1_GRP1_PERIPH_GPIOF
 306:Drivers/STM32F7xx_HAL_Driver/Inc/stm32f7xx_ll_bus.h ****   *         @arg @ref LL_AHB1_GRP1_PERIPH_GPIOG
 307:Drivers/STM32F7xx_HAL_Driver/Inc/stm32f7xx_ll_bus.h ****   *         @arg @ref LL_AHB1_GRP1_PERIPH_GPIOH
 308:Drivers/STM32F7xx_HAL_Driver/Inc/stm32f7xx_ll_bus.h ****   *         @arg @ref LL_AHB1_GRP1_PERIPH_GPIOI
 309:Drivers/STM32F7xx_HAL_Driver/Inc/stm32f7xx_ll_bus.h ****   *         @arg @ref LL_AHB1_GRP1_PERIPH_GPIOJ (*)
 310:Drivers/STM32F7xx_HAL_Driver/Inc/stm32f7xx_ll_bus.h ****   *         @arg @ref LL_AHB1_GRP1_PERIPH_GPIOK (*)
 311:Drivers/STM32F7xx_HAL_Driver/Inc/stm32f7xx_ll_bus.h ****   *         @arg @ref LL_AHB1_GRP1_PERIPH_CRC
 312:Drivers/STM32F7xx_HAL_Driver/Inc/stm32f7xx_ll_bus.h ****   *         @arg @ref LL_AHB1_GRP1_PERIPH_BKPSRAM
 313:Drivers/STM32F7xx_HAL_Driver/Inc/stm32f7xx_ll_bus.h ****   *         @arg @ref LL_AHB1_GRP1_PERIPH_DTCMRAM
 314:Drivers/STM32F7xx_HAL_Driver/Inc/stm32f7xx_ll_bus.h ****   *         @arg @ref LL_AHB1_GRP1_PERIPH_DMA1
 315:Drivers/STM32F7xx_HAL_Driver/Inc/stm32f7xx_ll_bus.h ****   *         @arg @ref LL_AHB1_GRP1_PERIPH_DMA2
 316:Drivers/STM32F7xx_HAL_Driver/Inc/stm32f7xx_ll_bus.h ****   *         @arg @ref LL_AHB1_GRP1_PERIPH_DMA2D (*)
 317:Drivers/STM32F7xx_HAL_Driver/Inc/stm32f7xx_ll_bus.h ****   *         @arg @ref LL_AHB1_GRP1_PERIPH_ETHMAC (*)
 318:Drivers/STM32F7xx_HAL_Driver/Inc/stm32f7xx_ll_bus.h ****   *         @arg @ref LL_AHB1_GRP1_PERIPH_ETHMACTX (*)
 319:Drivers/STM32F7xx_HAL_Driver/Inc/stm32f7xx_ll_bus.h ****   *         @arg @ref LL_AHB1_GRP1_PERIPH_ETHMACRX (*)
 320:Drivers/STM32F7xx_HAL_Driver/Inc/stm32f7xx_ll_bus.h ****   *         @arg @ref LL_AHB1_GRP1_PERIPH_ETHMACPTP (*)
 321:Drivers/STM32F7xx_HAL_Driver/Inc/stm32f7xx_ll_bus.h ****   *         @arg @ref LL_AHB1_GRP1_PERIPH_OTGHS
 322:Drivers/STM32F7xx_HAL_Driver/Inc/stm32f7xx_ll_bus.h ****   *         @arg @ref LL_AHB1_GRP1_PERIPH_OTGHSULPI
 323:Drivers/STM32F7xx_HAL_Driver/Inc/stm32f7xx_ll_bus.h ****   *
 324:Drivers/STM32F7xx_HAL_Driver/Inc/stm32f7xx_ll_bus.h ****   *         (*) value not defined in all devices.
 325:Drivers/STM32F7xx_HAL_Driver/Inc/stm32f7xx_ll_bus.h ****   * @retval None
 326:Drivers/STM32F7xx_HAL_Driver/Inc/stm32f7xx_ll_bus.h **** */
 327:Drivers/STM32F7xx_HAL_Driver/Inc/stm32f7xx_ll_bus.h **** __STATIC_INLINE void LL_AHB1_GRP1_EnableClock(uint32_t Periphs)
 328:Drivers/STM32F7xx_HAL_Driver/Inc/stm32f7xx_ll_bus.h **** {
 329:Drivers/STM32F7xx_HAL_Driver/Inc/stm32f7xx_ll_bus.h ****   __IO uint32_t tmpreg;
 330:Drivers/STM32F7xx_HAL_Driver/Inc/stm32f7xx_ll_bus.h ****   SET_BIT(RCC->AHB1ENR, Periphs);
 331:Drivers/STM32F7xx_HAL_Driver/Inc/stm32f7xx_ll_bus.h ****   /* Delay after an RCC peripheral clock enabling */
 332:Drivers/STM32F7xx_HAL_Driver/Inc/stm32f7xx_ll_bus.h ****   tmpreg = READ_BIT(RCC->AHB1ENR, Periphs);
 333:Drivers/STM32F7xx_HAL_Driver/Inc/stm32f7xx_ll_bus.h ****   (void)tmpreg;
 334:Drivers/STM32F7xx_HAL_Driver/Inc/stm32f7xx_ll_bus.h **** }
 335:Drivers/STM32F7xx_HAL_Driver/Inc/stm32f7xx_ll_bus.h **** 
 336:Drivers/STM32F7xx_HAL_Driver/Inc/stm32f7xx_ll_bus.h **** /**
 337:Drivers/STM32F7xx_HAL_Driver/Inc/stm32f7xx_ll_bus.h ****   * @brief  Check if AHB1 peripheral clock is enabled or not
ARM GAS  /tmp/cc6sio8H.s 			page 12


 338:Drivers/STM32F7xx_HAL_Driver/Inc/stm32f7xx_ll_bus.h ****   * @rmtoll AHB1ENR      GPIOAEN            LL_AHB1_GRP1_IsEnabledClock\n
 339:Drivers/STM32F7xx_HAL_Driver/Inc/stm32f7xx_ll_bus.h ****   *         AHB1ENR      GPIOBEN            LL_AHB1_GRP1_IsEnabledClock\n
 340:Drivers/STM32F7xx_HAL_Driver/Inc/stm32f7xx_ll_bus.h ****   *         AHB1ENR      GPIOCEN            LL_AHB1_GRP1_IsEnabledClock\n
 341:Drivers/STM32F7xx_HAL_Driver/Inc/stm32f7xx_ll_bus.h ****   *         AHB1ENR      GPIODEN            LL_AHB1_GRP1_IsEnabledClock\n
 342:Drivers/STM32F7xx_HAL_Driver/Inc/stm32f7xx_ll_bus.h ****   *         AHB1ENR      GPIOEEN            LL_AHB1_GRP1_IsEnabledClock\n
 343:Drivers/STM32F7xx_HAL_Driver/Inc/stm32f7xx_ll_bus.h ****   *         AHB1ENR      GPIOFEN            LL_AHB1_GRP1_IsEnabledClock\n
 344:Drivers/STM32F7xx_HAL_Driver/Inc/stm32f7xx_ll_bus.h ****   *         AHB1ENR      GPIOGEN            LL_AHB1_GRP1_IsEnabledClock\n
 345:Drivers/STM32F7xx_HAL_Driver/Inc/stm32f7xx_ll_bus.h ****   *         AHB1ENR      GPIOHEN            LL_AHB1_GRP1_IsEnabledClock\n
 346:Drivers/STM32F7xx_HAL_Driver/Inc/stm32f7xx_ll_bus.h ****   *         AHB1ENR      GPIOIEN            LL_AHB1_GRP1_IsEnabledClock\n
 347:Drivers/STM32F7xx_HAL_Driver/Inc/stm32f7xx_ll_bus.h ****   *         AHB1ENR      GPIOJEN            LL_AHB1_GRP1_IsEnabledClock\n
 348:Drivers/STM32F7xx_HAL_Driver/Inc/stm32f7xx_ll_bus.h ****   *         AHB1ENR      GPIOKEN            LL_AHB1_GRP1_IsEnabledClock\n
 349:Drivers/STM32F7xx_HAL_Driver/Inc/stm32f7xx_ll_bus.h ****   *         AHB1ENR      CRCEN              LL_AHB1_GRP1_IsEnabledClock\n
 350:Drivers/STM32F7xx_HAL_Driver/Inc/stm32f7xx_ll_bus.h ****   *         AHB1ENR      BKPSRAMEN          LL_AHB1_GRP1_IsEnabledClock\n
 351:Drivers/STM32F7xx_HAL_Driver/Inc/stm32f7xx_ll_bus.h ****   *         AHB1ENR      DTCMRAMEN          LL_AHB1_GRP1_IsEnabledClock\n
 352:Drivers/STM32F7xx_HAL_Driver/Inc/stm32f7xx_ll_bus.h ****   *         AHB1ENR      DMA1EN             LL_AHB1_GRP1_IsEnabledClock\n
 353:Drivers/STM32F7xx_HAL_Driver/Inc/stm32f7xx_ll_bus.h ****   *         AHB1ENR      DMA2EN             LL_AHB1_GRP1_IsEnabledClock\n
 354:Drivers/STM32F7xx_HAL_Driver/Inc/stm32f7xx_ll_bus.h ****   *         AHB1ENR      DMA2DEN            LL_AHB1_GRP1_IsEnabledClock\n
 355:Drivers/STM32F7xx_HAL_Driver/Inc/stm32f7xx_ll_bus.h ****   *         AHB1ENR      ETHMACEN           LL_AHB1_GRP1_IsEnabledClock\n
 356:Drivers/STM32F7xx_HAL_Driver/Inc/stm32f7xx_ll_bus.h ****   *         AHB1ENR      ETHMACTXEN         LL_AHB1_GRP1_IsEnabledClock\n
 357:Drivers/STM32F7xx_HAL_Driver/Inc/stm32f7xx_ll_bus.h ****   *         AHB1ENR      ETHMACRXEN         LL_AHB1_GRP1_IsEnabledClock\n
 358:Drivers/STM32F7xx_HAL_Driver/Inc/stm32f7xx_ll_bus.h ****   *         AHB1ENR      ETHMACPTPEN        LL_AHB1_GRP1_IsEnabledClock\n
 359:Drivers/STM32F7xx_HAL_Driver/Inc/stm32f7xx_ll_bus.h ****   *         AHB1ENR      OTGHSEN            LL_AHB1_GRP1_IsEnabledClock\n
 360:Drivers/STM32F7xx_HAL_Driver/Inc/stm32f7xx_ll_bus.h ****   *         AHB1ENR      OTGHSULPIENDEN     LL_AHB1_GRP1_IsEnabledClock
 361:Drivers/STM32F7xx_HAL_Driver/Inc/stm32f7xx_ll_bus.h ****   * @param  Periphs This parameter can be a combination of the following values:
 362:Drivers/STM32F7xx_HAL_Driver/Inc/stm32f7xx_ll_bus.h ****   *         @arg @ref LL_AHB1_GRP1_PERIPH_GPIOA
 363:Drivers/STM32F7xx_HAL_Driver/Inc/stm32f7xx_ll_bus.h ****   *         @arg @ref LL_AHB1_GRP1_PERIPH_GPIOB
 364:Drivers/STM32F7xx_HAL_Driver/Inc/stm32f7xx_ll_bus.h ****   *         @arg @ref LL_AHB1_GRP1_PERIPH_GPIOC
 365:Drivers/STM32F7xx_HAL_Driver/Inc/stm32f7xx_ll_bus.h ****   *         @arg @ref LL_AHB1_GRP1_PERIPH_GPIOD
 366:Drivers/STM32F7xx_HAL_Driver/Inc/stm32f7xx_ll_bus.h ****   *         @arg @ref LL_AHB1_GRP1_PERIPH_GPIOE
 367:Drivers/STM32F7xx_HAL_Driver/Inc/stm32f7xx_ll_bus.h ****   *         @arg @ref LL_AHB1_GRP1_PERIPH_GPIOF
 368:Drivers/STM32F7xx_HAL_Driver/Inc/stm32f7xx_ll_bus.h ****   *         @arg @ref LL_AHB1_GRP1_PERIPH_GPIOG
 369:Drivers/STM32F7xx_HAL_Driver/Inc/stm32f7xx_ll_bus.h ****   *         @arg @ref LL_AHB1_GRP1_PERIPH_GPIOH
 370:Drivers/STM32F7xx_HAL_Driver/Inc/stm32f7xx_ll_bus.h ****   *         @arg @ref LL_AHB1_GRP1_PERIPH_GPIOI
 371:Drivers/STM32F7xx_HAL_Driver/Inc/stm32f7xx_ll_bus.h ****   *         @arg @ref LL_AHB1_GRP1_PERIPH_GPIOJ (*)
 372:Drivers/STM32F7xx_HAL_Driver/Inc/stm32f7xx_ll_bus.h ****   *         @arg @ref LL_AHB1_GRP1_PERIPH_GPIOK (*)
 373:Drivers/STM32F7xx_HAL_Driver/Inc/stm32f7xx_ll_bus.h ****   *         @arg @ref LL_AHB1_GRP1_PERIPH_CRC
 374:Drivers/STM32F7xx_HAL_Driver/Inc/stm32f7xx_ll_bus.h ****   *         @arg @ref LL_AHB1_GRP1_PERIPH_BKPSRAM
 375:Drivers/STM32F7xx_HAL_Driver/Inc/stm32f7xx_ll_bus.h ****   *         @arg @ref LL_AHB1_GRP1_PERIPH_DTCMRAM
 376:Drivers/STM32F7xx_HAL_Driver/Inc/stm32f7xx_ll_bus.h ****   *         @arg @ref LL_AHB1_GRP1_PERIPH_DMA1
 377:Drivers/STM32F7xx_HAL_Driver/Inc/stm32f7xx_ll_bus.h ****   *         @arg @ref LL_AHB1_GRP1_PERIPH_DMA2
 378:Drivers/STM32F7xx_HAL_Driver/Inc/stm32f7xx_ll_bus.h ****   *         @arg @ref LL_AHB1_GRP1_PERIPH_DMA2D (*)
 379:Drivers/STM32F7xx_HAL_Driver/Inc/stm32f7xx_ll_bus.h ****   *         @arg @ref LL_AHB1_GRP1_PERIPH_ETHMAC (*)
 380:Drivers/STM32F7xx_HAL_Driver/Inc/stm32f7xx_ll_bus.h ****   *         @arg @ref LL_AHB1_GRP1_PERIPH_ETHMACTX (*)
 381:Drivers/STM32F7xx_HAL_Driver/Inc/stm32f7xx_ll_bus.h ****   *         @arg @ref LL_AHB1_GRP1_PERIPH_ETHMACRX (*)
 382:Drivers/STM32F7xx_HAL_Driver/Inc/stm32f7xx_ll_bus.h ****   *         @arg @ref LL_AHB1_GRP1_PERIPH_ETHMACPTP (*)
 383:Drivers/STM32F7xx_HAL_Driver/Inc/stm32f7xx_ll_bus.h ****   *         @arg @ref LL_AHB1_GRP1_PERIPH_OTGHS
 384:Drivers/STM32F7xx_HAL_Driver/Inc/stm32f7xx_ll_bus.h ****   *         @arg @ref LL_AHB1_GRP1_PERIPH_OTGHSULPI
 385:Drivers/STM32F7xx_HAL_Driver/Inc/stm32f7xx_ll_bus.h ****   *
 386:Drivers/STM32F7xx_HAL_Driver/Inc/stm32f7xx_ll_bus.h ****   *         (*) value not defined in all devices.
 387:Drivers/STM32F7xx_HAL_Driver/Inc/stm32f7xx_ll_bus.h ****   * @retval State of Periphs (1 or 0).
 388:Drivers/STM32F7xx_HAL_Driver/Inc/stm32f7xx_ll_bus.h **** */
 389:Drivers/STM32F7xx_HAL_Driver/Inc/stm32f7xx_ll_bus.h **** __STATIC_INLINE uint32_t LL_AHB1_GRP1_IsEnabledClock(uint32_t Periphs)
 390:Drivers/STM32F7xx_HAL_Driver/Inc/stm32f7xx_ll_bus.h **** {
 391:Drivers/STM32F7xx_HAL_Driver/Inc/stm32f7xx_ll_bus.h ****   return (READ_BIT(RCC->AHB1ENR, Periphs) == Periphs);
 392:Drivers/STM32F7xx_HAL_Driver/Inc/stm32f7xx_ll_bus.h **** }
 393:Drivers/STM32F7xx_HAL_Driver/Inc/stm32f7xx_ll_bus.h **** 
 394:Drivers/STM32F7xx_HAL_Driver/Inc/stm32f7xx_ll_bus.h **** /**
ARM GAS  /tmp/cc6sio8H.s 			page 13


 395:Drivers/STM32F7xx_HAL_Driver/Inc/stm32f7xx_ll_bus.h ****   * @brief  Disable AHB1 peripherals clock.
 396:Drivers/STM32F7xx_HAL_Driver/Inc/stm32f7xx_ll_bus.h ****   * @rmtoll AHB1ENR      GPIOAEN            LL_AHB1_GRP1_DisableClock\n
 397:Drivers/STM32F7xx_HAL_Driver/Inc/stm32f7xx_ll_bus.h ****   *         AHB1ENR      GPIOBEN            LL_AHB1_GRP1_DisableClock\n
 398:Drivers/STM32F7xx_HAL_Driver/Inc/stm32f7xx_ll_bus.h ****   *         AHB1ENR      GPIOCEN            LL_AHB1_GRP1_DisableClock\n
 399:Drivers/STM32F7xx_HAL_Driver/Inc/stm32f7xx_ll_bus.h ****   *         AHB1ENR      GPIODEN            LL_AHB1_GRP1_DisableClock\n
 400:Drivers/STM32F7xx_HAL_Driver/Inc/stm32f7xx_ll_bus.h ****   *         AHB1ENR      GPIOEEN            LL_AHB1_GRP1_DisableClock\n
 401:Drivers/STM32F7xx_HAL_Driver/Inc/stm32f7xx_ll_bus.h ****   *         AHB1ENR      GPIOFEN            LL_AHB1_GRP1_DisableClock\n
 402:Drivers/STM32F7xx_HAL_Driver/Inc/stm32f7xx_ll_bus.h ****   *         AHB1ENR      GPIOGEN            LL_AHB1_GRP1_DisableClock\n
 403:Drivers/STM32F7xx_HAL_Driver/Inc/stm32f7xx_ll_bus.h ****   *         AHB1ENR      GPIOHEN            LL_AHB1_GRP1_DisableClock\n
 404:Drivers/STM32F7xx_HAL_Driver/Inc/stm32f7xx_ll_bus.h ****   *         AHB1ENR      GPIOIEN            LL_AHB1_GRP1_DisableClock\n
 405:Drivers/STM32F7xx_HAL_Driver/Inc/stm32f7xx_ll_bus.h ****   *         AHB1ENR      GPIOJEN            LL_AHB1_GRP1_DisableClock\n
 406:Drivers/STM32F7xx_HAL_Driver/Inc/stm32f7xx_ll_bus.h ****   *         AHB1ENR      GPIOKEN            LL_AHB1_GRP1_DisableClock\n
 407:Drivers/STM32F7xx_HAL_Driver/Inc/stm32f7xx_ll_bus.h ****   *         AHB1ENR      CRCEN              LL_AHB1_GRP1_DisableClock\n
 408:Drivers/STM32F7xx_HAL_Driver/Inc/stm32f7xx_ll_bus.h ****   *         AHB1ENR      BKPSRAMEN          LL_AHB1_GRP1_DisableClock\n
 409:Drivers/STM32F7xx_HAL_Driver/Inc/stm32f7xx_ll_bus.h ****   *         AHB1ENR      DTCMRAMEN          LL_AHB1_GRP1_DisableClock\n
 410:Drivers/STM32F7xx_HAL_Driver/Inc/stm32f7xx_ll_bus.h ****   *         AHB1ENR      DMA1EN             LL_AHB1_GRP1_DisableClock\n
 411:Drivers/STM32F7xx_HAL_Driver/Inc/stm32f7xx_ll_bus.h ****   *         AHB1ENR      DMA2EN             LL_AHB1_GRP1_DisableClock\n
 412:Drivers/STM32F7xx_HAL_Driver/Inc/stm32f7xx_ll_bus.h ****   *         AHB1ENR      DMA2DEN            LL_AHB1_GRP1_DisableClock\n
 413:Drivers/STM32F7xx_HAL_Driver/Inc/stm32f7xx_ll_bus.h ****   *         AHB1ENR      ETHMACEN           LL_AHB1_GRP1_DisableClock\n
 414:Drivers/STM32F7xx_HAL_Driver/Inc/stm32f7xx_ll_bus.h ****   *         AHB1ENR      ETHMACTXEN         LL_AHB1_GRP1_DisableClock\n
 415:Drivers/STM32F7xx_HAL_Driver/Inc/stm32f7xx_ll_bus.h ****   *         AHB1ENR      ETHMACRXEN         LL_AHB1_GRP1_DisableClock\n
 416:Drivers/STM32F7xx_HAL_Driver/Inc/stm32f7xx_ll_bus.h ****   *         AHB1ENR      ETHMACPTPEN        LL_AHB1_GRP1_DisableClock\n
 417:Drivers/STM32F7xx_HAL_Driver/Inc/stm32f7xx_ll_bus.h ****   *         AHB1ENR      OTGHSEN            LL_AHB1_GRP1_DisableClock\n
 418:Drivers/STM32F7xx_HAL_Driver/Inc/stm32f7xx_ll_bus.h ****   *         AHB1ENR      OTGHSULPIENDEN     LL_AHB1_GRP1_DisableClock
 419:Drivers/STM32F7xx_HAL_Driver/Inc/stm32f7xx_ll_bus.h ****   * @param  Periphs This parameter can be a combination of the following values:
 420:Drivers/STM32F7xx_HAL_Driver/Inc/stm32f7xx_ll_bus.h ****   *         @arg @ref LL_AHB1_GRP1_PERIPH_GPIOA
 421:Drivers/STM32F7xx_HAL_Driver/Inc/stm32f7xx_ll_bus.h ****   *         @arg @ref LL_AHB1_GRP1_PERIPH_GPIOB
 422:Drivers/STM32F7xx_HAL_Driver/Inc/stm32f7xx_ll_bus.h ****   *         @arg @ref LL_AHB1_GRP1_PERIPH_GPIOC
 423:Drivers/STM32F7xx_HAL_Driver/Inc/stm32f7xx_ll_bus.h ****   *         @arg @ref LL_AHB1_GRP1_PERIPH_GPIOD
 424:Drivers/STM32F7xx_HAL_Driver/Inc/stm32f7xx_ll_bus.h ****   *         @arg @ref LL_AHB1_GRP1_PERIPH_GPIOE
 425:Drivers/STM32F7xx_HAL_Driver/Inc/stm32f7xx_ll_bus.h ****   *         @arg @ref LL_AHB1_GRP1_PERIPH_GPIOF
 426:Drivers/STM32F7xx_HAL_Driver/Inc/stm32f7xx_ll_bus.h ****   *         @arg @ref LL_AHB1_GRP1_PERIPH_GPIOG
 427:Drivers/STM32F7xx_HAL_Driver/Inc/stm32f7xx_ll_bus.h ****   *         @arg @ref LL_AHB1_GRP1_PERIPH_GPIOH
 428:Drivers/STM32F7xx_HAL_Driver/Inc/stm32f7xx_ll_bus.h ****   *         @arg @ref LL_AHB1_GRP1_PERIPH_GPIOI
 429:Drivers/STM32F7xx_HAL_Driver/Inc/stm32f7xx_ll_bus.h ****   *         @arg @ref LL_AHB1_GRP1_PERIPH_GPIOJ (*)
 430:Drivers/STM32F7xx_HAL_Driver/Inc/stm32f7xx_ll_bus.h ****   *         @arg @ref LL_AHB1_GRP1_PERIPH_GPIOK (*)
 431:Drivers/STM32F7xx_HAL_Driver/Inc/stm32f7xx_ll_bus.h ****   *         @arg @ref LL_AHB1_GRP1_PERIPH_CRC
 432:Drivers/STM32F7xx_HAL_Driver/Inc/stm32f7xx_ll_bus.h ****   *         @arg @ref LL_AHB1_GRP1_PERIPH_BKPSRAM
 433:Drivers/STM32F7xx_HAL_Driver/Inc/stm32f7xx_ll_bus.h ****   *         @arg @ref LL_AHB1_GRP1_PERIPH_DTCMRAM
 434:Drivers/STM32F7xx_HAL_Driver/Inc/stm32f7xx_ll_bus.h ****   *         @arg @ref LL_AHB1_GRP1_PERIPH_DMA1
 435:Drivers/STM32F7xx_HAL_Driver/Inc/stm32f7xx_ll_bus.h ****   *         @arg @ref LL_AHB1_GRP1_PERIPH_DMA2
 436:Drivers/STM32F7xx_HAL_Driver/Inc/stm32f7xx_ll_bus.h ****   *         @arg @ref LL_AHB1_GRP1_PERIPH_DMA2D (*)
 437:Drivers/STM32F7xx_HAL_Driver/Inc/stm32f7xx_ll_bus.h ****   *         @arg @ref LL_AHB1_GRP1_PERIPH_ETHMAC (*)
 438:Drivers/STM32F7xx_HAL_Driver/Inc/stm32f7xx_ll_bus.h ****   *         @arg @ref LL_AHB1_GRP1_PERIPH_ETHMACTX (*)
 439:Drivers/STM32F7xx_HAL_Driver/Inc/stm32f7xx_ll_bus.h ****   *         @arg @ref LL_AHB1_GRP1_PERIPH_ETHMACRX (*)
 440:Drivers/STM32F7xx_HAL_Driver/Inc/stm32f7xx_ll_bus.h ****   *         @arg @ref LL_AHB1_GRP1_PERIPH_ETHMACPTP (*)
 441:Drivers/STM32F7xx_HAL_Driver/Inc/stm32f7xx_ll_bus.h ****   *         @arg @ref LL_AHB1_GRP1_PERIPH_OTGHS
 442:Drivers/STM32F7xx_HAL_Driver/Inc/stm32f7xx_ll_bus.h ****   *         @arg @ref LL_AHB1_GRP1_PERIPH_OTGHSULPI
 443:Drivers/STM32F7xx_HAL_Driver/Inc/stm32f7xx_ll_bus.h ****   *
 444:Drivers/STM32F7xx_HAL_Driver/Inc/stm32f7xx_ll_bus.h ****   *         (*) value not defined in all devices.
 445:Drivers/STM32F7xx_HAL_Driver/Inc/stm32f7xx_ll_bus.h ****   * @retval None
 446:Drivers/STM32F7xx_HAL_Driver/Inc/stm32f7xx_ll_bus.h **** */
 447:Drivers/STM32F7xx_HAL_Driver/Inc/stm32f7xx_ll_bus.h **** __STATIC_INLINE void LL_AHB1_GRP1_DisableClock(uint32_t Periphs)
 448:Drivers/STM32F7xx_HAL_Driver/Inc/stm32f7xx_ll_bus.h **** {
 449:Drivers/STM32F7xx_HAL_Driver/Inc/stm32f7xx_ll_bus.h ****   CLEAR_BIT(RCC->AHB1ENR, Periphs);
 450:Drivers/STM32F7xx_HAL_Driver/Inc/stm32f7xx_ll_bus.h **** }
 451:Drivers/STM32F7xx_HAL_Driver/Inc/stm32f7xx_ll_bus.h **** 
ARM GAS  /tmp/cc6sio8H.s 			page 14


 452:Drivers/STM32F7xx_HAL_Driver/Inc/stm32f7xx_ll_bus.h **** /**
 453:Drivers/STM32F7xx_HAL_Driver/Inc/stm32f7xx_ll_bus.h ****   * @brief  Force AHB1 peripherals reset.
 454:Drivers/STM32F7xx_HAL_Driver/Inc/stm32f7xx_ll_bus.h ****   * @rmtoll AHB1RSTR     GPIOARST      LL_AHB1_GRP1_ForceReset\n
 455:Drivers/STM32F7xx_HAL_Driver/Inc/stm32f7xx_ll_bus.h ****   *         AHB1RSTR     GPIOBRST      LL_AHB1_GRP1_ForceReset\n
 456:Drivers/STM32F7xx_HAL_Driver/Inc/stm32f7xx_ll_bus.h ****   *         AHB1RSTR     GPIOCRST      LL_AHB1_GRP1_ForceReset\n
 457:Drivers/STM32F7xx_HAL_Driver/Inc/stm32f7xx_ll_bus.h ****   *         AHB1RSTR     GPIODRST      LL_AHB1_GRP1_ForceReset\n
 458:Drivers/STM32F7xx_HAL_Driver/Inc/stm32f7xx_ll_bus.h ****   *         AHB1RSTR     GPIOERST      LL_AHB1_GRP1_ForceReset\n
 459:Drivers/STM32F7xx_HAL_Driver/Inc/stm32f7xx_ll_bus.h ****   *         AHB1RSTR     GPIOFRST      LL_AHB1_GRP1_ForceReset\n
 460:Drivers/STM32F7xx_HAL_Driver/Inc/stm32f7xx_ll_bus.h ****   *         AHB1RSTR     GPIOGRST      LL_AHB1_GRP1_ForceReset\n
 461:Drivers/STM32F7xx_HAL_Driver/Inc/stm32f7xx_ll_bus.h ****   *         AHB1RSTR     GPIOHRST      LL_AHB1_GRP1_ForceReset\n
 462:Drivers/STM32F7xx_HAL_Driver/Inc/stm32f7xx_ll_bus.h ****   *         AHB1RSTR     GPIOIRST      LL_AHB1_GRP1_ForceReset\n
 463:Drivers/STM32F7xx_HAL_Driver/Inc/stm32f7xx_ll_bus.h ****   *         AHB1RSTR     GPIOJRST      LL_AHB1_GRP1_ForceReset\n
 464:Drivers/STM32F7xx_HAL_Driver/Inc/stm32f7xx_ll_bus.h ****   *         AHB1RSTR     GPIOKRST      LL_AHB1_GRP1_ForceReset\n
 465:Drivers/STM32F7xx_HAL_Driver/Inc/stm32f7xx_ll_bus.h ****   *         AHB1RSTR     CRCRST        LL_AHB1_GRP1_ForceReset\n
 466:Drivers/STM32F7xx_HAL_Driver/Inc/stm32f7xx_ll_bus.h ****   *         AHB1RSTR     DMA1RST       LL_AHB1_GRP1_ForceReset\n
 467:Drivers/STM32F7xx_HAL_Driver/Inc/stm32f7xx_ll_bus.h ****   *         AHB1RSTR     DMA2RST       LL_AHB1_GRP1_ForceReset\n
 468:Drivers/STM32F7xx_HAL_Driver/Inc/stm32f7xx_ll_bus.h ****   *         AHB1RSTR     DMA2DRST      LL_AHB1_GRP1_ForceReset\n
 469:Drivers/STM32F7xx_HAL_Driver/Inc/stm32f7xx_ll_bus.h ****   *         AHB1RSTR     ETHMACRST     LL_AHB1_GRP1_ForceReset\n
 470:Drivers/STM32F7xx_HAL_Driver/Inc/stm32f7xx_ll_bus.h ****   *         AHB1RSTR     OTGHSRST      LL_AHB1_GRP1_ForceReset
 471:Drivers/STM32F7xx_HAL_Driver/Inc/stm32f7xx_ll_bus.h ****   * @param  Periphs This parameter can be a combination of the following values:
 472:Drivers/STM32F7xx_HAL_Driver/Inc/stm32f7xx_ll_bus.h ****   *         @arg @ref LL_AHB1_GRP1_PERIPH_ALL
 473:Drivers/STM32F7xx_HAL_Driver/Inc/stm32f7xx_ll_bus.h ****   *         @arg @ref LL_AHB1_GRP1_PERIPH_GPIOA
 474:Drivers/STM32F7xx_HAL_Driver/Inc/stm32f7xx_ll_bus.h ****   *         @arg @ref LL_AHB1_GRP1_PERIPH_GPIOB
 475:Drivers/STM32F7xx_HAL_Driver/Inc/stm32f7xx_ll_bus.h ****   *         @arg @ref LL_AHB1_GRP1_PERIPH_GPIOC
 476:Drivers/STM32F7xx_HAL_Driver/Inc/stm32f7xx_ll_bus.h ****   *         @arg @ref LL_AHB1_GRP1_PERIPH_GPIOD
 477:Drivers/STM32F7xx_HAL_Driver/Inc/stm32f7xx_ll_bus.h ****   *         @arg @ref LL_AHB1_GRP1_PERIPH_GPIOE
 478:Drivers/STM32F7xx_HAL_Driver/Inc/stm32f7xx_ll_bus.h ****   *         @arg @ref LL_AHB1_GRP1_PERIPH_GPIOF
 479:Drivers/STM32F7xx_HAL_Driver/Inc/stm32f7xx_ll_bus.h ****   *         @arg @ref LL_AHB1_GRP1_PERIPH_GPIOG
 480:Drivers/STM32F7xx_HAL_Driver/Inc/stm32f7xx_ll_bus.h ****   *         @arg @ref LL_AHB1_GRP1_PERIPH_GPIOH
 481:Drivers/STM32F7xx_HAL_Driver/Inc/stm32f7xx_ll_bus.h ****   *         @arg @ref LL_AHB1_GRP1_PERIPH_GPIOI
 482:Drivers/STM32F7xx_HAL_Driver/Inc/stm32f7xx_ll_bus.h ****   *         @arg @ref LL_AHB1_GRP1_PERIPH_GPIOJ (*)
 483:Drivers/STM32F7xx_HAL_Driver/Inc/stm32f7xx_ll_bus.h ****   *         @arg @ref LL_AHB1_GRP1_PERIPH_GPIOK (*)
 484:Drivers/STM32F7xx_HAL_Driver/Inc/stm32f7xx_ll_bus.h ****   *         @arg @ref LL_AHB1_GRP1_PERIPH_CRC
 485:Drivers/STM32F7xx_HAL_Driver/Inc/stm32f7xx_ll_bus.h ****   *         @arg @ref LL_AHB1_GRP1_PERIPH_DMA1
 486:Drivers/STM32F7xx_HAL_Driver/Inc/stm32f7xx_ll_bus.h ****   *         @arg @ref LL_AHB1_GRP1_PERIPH_DMA2
 487:Drivers/STM32F7xx_HAL_Driver/Inc/stm32f7xx_ll_bus.h ****   *         @arg @ref LL_AHB1_GRP1_PERIPH_DMA2D (*)
 488:Drivers/STM32F7xx_HAL_Driver/Inc/stm32f7xx_ll_bus.h ****   *         @arg @ref LL_AHB1_GRP1_PERIPH_ETHMAC (*)
 489:Drivers/STM32F7xx_HAL_Driver/Inc/stm32f7xx_ll_bus.h ****   *         @arg @ref LL_AHB1_GRP1_PERIPH_OTGHS
 490:Drivers/STM32F7xx_HAL_Driver/Inc/stm32f7xx_ll_bus.h ****   *
 491:Drivers/STM32F7xx_HAL_Driver/Inc/stm32f7xx_ll_bus.h ****   *         (*) value not defined in all devices.
 492:Drivers/STM32F7xx_HAL_Driver/Inc/stm32f7xx_ll_bus.h ****   * @retval None
 493:Drivers/STM32F7xx_HAL_Driver/Inc/stm32f7xx_ll_bus.h **** */
 494:Drivers/STM32F7xx_HAL_Driver/Inc/stm32f7xx_ll_bus.h **** __STATIC_INLINE void LL_AHB1_GRP1_ForceReset(uint32_t Periphs)
 495:Drivers/STM32F7xx_HAL_Driver/Inc/stm32f7xx_ll_bus.h **** {
 496:Drivers/STM32F7xx_HAL_Driver/Inc/stm32f7xx_ll_bus.h ****   SET_BIT(RCC->AHB1RSTR, Periphs);
  87              		.loc 2 496 0
  88 0046 03F56053 		add	r3, r3, #14336
  89 004a 1A69     		ldr	r2, [r3, #16]
  90 004c 42F00102 		orr	r2, r2, #1
  91 0050 1A61     		str	r2, [r3, #16]
  92              	.LVL3:
  93              	.LBE107:
  94              	.LBE106:
  95              	.LBB108:
  96              	.LBB109:
 497:Drivers/STM32F7xx_HAL_Driver/Inc/stm32f7xx_ll_bus.h **** }
 498:Drivers/STM32F7xx_HAL_Driver/Inc/stm32f7xx_ll_bus.h **** 
ARM GAS  /tmp/cc6sio8H.s 			page 15


 499:Drivers/STM32F7xx_HAL_Driver/Inc/stm32f7xx_ll_bus.h **** /**
 500:Drivers/STM32F7xx_HAL_Driver/Inc/stm32f7xx_ll_bus.h ****   * @brief  Release AHB1 peripherals reset.
 501:Drivers/STM32F7xx_HAL_Driver/Inc/stm32f7xx_ll_bus.h ****   * @rmtoll AHB1RSTR     GPIOARST      LL_AHB1_GRP1_ReleaseReset\n
 502:Drivers/STM32F7xx_HAL_Driver/Inc/stm32f7xx_ll_bus.h ****   *         AHB1RSTR     GPIOBRST      LL_AHB1_GRP1_ReleaseReset\n
 503:Drivers/STM32F7xx_HAL_Driver/Inc/stm32f7xx_ll_bus.h ****   *         AHB1RSTR     GPIOCRST      LL_AHB1_GRP1_ReleaseReset\n
 504:Drivers/STM32F7xx_HAL_Driver/Inc/stm32f7xx_ll_bus.h ****   *         AHB1RSTR     GPIODRST      LL_AHB1_GRP1_ReleaseReset\n
 505:Drivers/STM32F7xx_HAL_Driver/Inc/stm32f7xx_ll_bus.h ****   *         AHB1RSTR     GPIOERST      LL_AHB1_GRP1_ReleaseReset\n
 506:Drivers/STM32F7xx_HAL_Driver/Inc/stm32f7xx_ll_bus.h ****   *         AHB1RSTR     GPIOFRST      LL_AHB1_GRP1_ReleaseReset\n
 507:Drivers/STM32F7xx_HAL_Driver/Inc/stm32f7xx_ll_bus.h ****   *         AHB1RSTR     GPIOGRST      LL_AHB1_GRP1_ReleaseReset\n
 508:Drivers/STM32F7xx_HAL_Driver/Inc/stm32f7xx_ll_bus.h ****   *         AHB1RSTR     GPIOHRST      LL_AHB1_GRP1_ReleaseReset\n
 509:Drivers/STM32F7xx_HAL_Driver/Inc/stm32f7xx_ll_bus.h ****   *         AHB1RSTR     GPIOIRST      LL_AHB1_GRP1_ReleaseReset\n
 510:Drivers/STM32F7xx_HAL_Driver/Inc/stm32f7xx_ll_bus.h ****   *         AHB1RSTR     GPIOJRST      LL_AHB1_GRP1_ReleaseReset\n
 511:Drivers/STM32F7xx_HAL_Driver/Inc/stm32f7xx_ll_bus.h ****   *         AHB1RSTR     GPIOKRST      LL_AHB1_GRP1_ReleaseReset\n
 512:Drivers/STM32F7xx_HAL_Driver/Inc/stm32f7xx_ll_bus.h ****   *         AHB1RSTR     CRCRST        LL_AHB1_GRP1_ReleaseReset\n
 513:Drivers/STM32F7xx_HAL_Driver/Inc/stm32f7xx_ll_bus.h ****   *         AHB1RSTR     DMA1RST       LL_AHB1_GRP1_ReleaseReset\n
 514:Drivers/STM32F7xx_HAL_Driver/Inc/stm32f7xx_ll_bus.h ****   *         AHB1RSTR     DMA2RST       LL_AHB1_GRP1_ReleaseReset\n
 515:Drivers/STM32F7xx_HAL_Driver/Inc/stm32f7xx_ll_bus.h ****   *         AHB1RSTR     DMA2DRST      LL_AHB1_GRP1_ReleaseReset\n
 516:Drivers/STM32F7xx_HAL_Driver/Inc/stm32f7xx_ll_bus.h ****   *         AHB1RSTR     ETHMACRST     LL_AHB1_GRP1_ReleaseReset\n
 517:Drivers/STM32F7xx_HAL_Driver/Inc/stm32f7xx_ll_bus.h ****   *         AHB1RSTR     OTGHSRST      LL_AHB1_GRP1_ReleaseReset
 518:Drivers/STM32F7xx_HAL_Driver/Inc/stm32f7xx_ll_bus.h ****   * @param  Periphs This parameter can be a combination of the following values:
 519:Drivers/STM32F7xx_HAL_Driver/Inc/stm32f7xx_ll_bus.h ****   *         @arg @ref LL_AHB1_GRP1_PERIPH_ALL
 520:Drivers/STM32F7xx_HAL_Driver/Inc/stm32f7xx_ll_bus.h ****   *         @arg @ref LL_AHB1_GRP1_PERIPH_GPIOA
 521:Drivers/STM32F7xx_HAL_Driver/Inc/stm32f7xx_ll_bus.h ****   *         @arg @ref LL_AHB1_GRP1_PERIPH_GPIOB
 522:Drivers/STM32F7xx_HAL_Driver/Inc/stm32f7xx_ll_bus.h ****   *         @arg @ref LL_AHB1_GRP1_PERIPH_GPIOC
 523:Drivers/STM32F7xx_HAL_Driver/Inc/stm32f7xx_ll_bus.h ****   *         @arg @ref LL_AHB1_GRP1_PERIPH_GPIOD
 524:Drivers/STM32F7xx_HAL_Driver/Inc/stm32f7xx_ll_bus.h ****   *         @arg @ref LL_AHB1_GRP1_PERIPH_GPIOE
 525:Drivers/STM32F7xx_HAL_Driver/Inc/stm32f7xx_ll_bus.h ****   *         @arg @ref LL_AHB1_GRP1_PERIPH_GPIOF
 526:Drivers/STM32F7xx_HAL_Driver/Inc/stm32f7xx_ll_bus.h ****   *         @arg @ref LL_AHB1_GRP1_PERIPH_GPIOG
 527:Drivers/STM32F7xx_HAL_Driver/Inc/stm32f7xx_ll_bus.h ****   *         @arg @ref LL_AHB1_GRP1_PERIPH_GPIOH
 528:Drivers/STM32F7xx_HAL_Driver/Inc/stm32f7xx_ll_bus.h ****   *         @arg @ref LL_AHB1_GRP1_PERIPH_GPIOI
 529:Drivers/STM32F7xx_HAL_Driver/Inc/stm32f7xx_ll_bus.h ****   *         @arg @ref LL_AHB1_GRP1_PERIPH_GPIOJ (*)
 530:Drivers/STM32F7xx_HAL_Driver/Inc/stm32f7xx_ll_bus.h ****   *         @arg @ref LL_AHB1_GRP1_PERIPH_GPIOK (*)
 531:Drivers/STM32F7xx_HAL_Driver/Inc/stm32f7xx_ll_bus.h ****   *         @arg @ref LL_AHB1_GRP1_PERIPH_CRC
 532:Drivers/STM32F7xx_HAL_Driver/Inc/stm32f7xx_ll_bus.h ****   *         @arg @ref LL_AHB1_GRP1_PERIPH_DMA1
 533:Drivers/STM32F7xx_HAL_Driver/Inc/stm32f7xx_ll_bus.h ****   *         @arg @ref LL_AHB1_GRP1_PERIPH_DMA2
 534:Drivers/STM32F7xx_HAL_Driver/Inc/stm32f7xx_ll_bus.h ****   *         @arg @ref LL_AHB1_GRP1_PERIPH_DMA2D (*)
 535:Drivers/STM32F7xx_HAL_Driver/Inc/stm32f7xx_ll_bus.h ****   *         @arg @ref LL_AHB1_GRP1_PERIPH_ETHMAC (*)
 536:Drivers/STM32F7xx_HAL_Driver/Inc/stm32f7xx_ll_bus.h ****   *         @arg @ref LL_AHB1_GRP1_PERIPH_OTGHS
 537:Drivers/STM32F7xx_HAL_Driver/Inc/stm32f7xx_ll_bus.h ****   *
 538:Drivers/STM32F7xx_HAL_Driver/Inc/stm32f7xx_ll_bus.h ****   *         (*) value not defined in all devices.
 539:Drivers/STM32F7xx_HAL_Driver/Inc/stm32f7xx_ll_bus.h ****   * @retval None
 540:Drivers/STM32F7xx_HAL_Driver/Inc/stm32f7xx_ll_bus.h **** */
 541:Drivers/STM32F7xx_HAL_Driver/Inc/stm32f7xx_ll_bus.h **** __STATIC_INLINE void LL_AHB1_GRP1_ReleaseReset(uint32_t Periphs)
 542:Drivers/STM32F7xx_HAL_Driver/Inc/stm32f7xx_ll_bus.h **** {
 543:Drivers/STM32F7xx_HAL_Driver/Inc/stm32f7xx_ll_bus.h ****   CLEAR_BIT(RCC->AHB1RSTR, Periphs);
  97              		.loc 2 543 0
  98 0052 1A69     		ldr	r2, [r3, #16]
  99 0054 22F00102 		bic	r2, r2, #1
 100 0058 1A61     		str	r2, [r3, #16]
 101              	.LBE109:
 102              	.LBE108:
 122:Drivers/STM32F7xx_HAL_Driver/Src/stm32f7xx_ll_gpio.c **** 
 103              		.loc 1 122 0
 104 005a 0120     		movs	r0, #1
 105              	.LVL4:
 106 005c 7047     		bx	lr
 107              	.LVL5:
ARM GAS  /tmp/cc6sio8H.s 			page 16


 108              	.L15:
 109              	.LBB110:
 110              	.LBB111:
 496:Drivers/STM32F7xx_HAL_Driver/Inc/stm32f7xx_ll_bus.h **** }
 111              		.loc 2 496 0
 112 005e 03F55053 		add	r3, r3, #13312
 113 0062 1A69     		ldr	r2, [r3, #16]
 114 0064 42F00202 		orr	r2, r2, #2
 115 0068 1A61     		str	r2, [r3, #16]
 116              	.LVL6:
 117              	.LBE111:
 118              	.LBE110:
 119              	.LBB112:
 120              	.LBB113:
 121              		.loc 2 543 0
 122 006a 1A69     		ldr	r2, [r3, #16]
 123 006c 22F00202 		bic	r2, r2, #2
 124 0070 1A61     		str	r2, [r3, #16]
 125              	.LBE113:
 126              	.LBE112:
 122:Drivers/STM32F7xx_HAL_Driver/Src/stm32f7xx_ll_gpio.c **** 
 127              		.loc 1 122 0
 128 0072 0120     		movs	r0, #1
 129              	.LVL7:
 130 0074 7047     		bx	lr
 131              	.LVL8:
 132              	.L16:
 133              	.LBB114:
 134              	.LBB115:
 496:Drivers/STM32F7xx_HAL_Driver/Inc/stm32f7xx_ll_bus.h **** }
 135              		.loc 2 496 0
 136 0076 03F54053 		add	r3, r3, #12288
 137 007a 1A69     		ldr	r2, [r3, #16]
 138 007c 42F00402 		orr	r2, r2, #4
 139 0080 1A61     		str	r2, [r3, #16]
 140              	.LVL9:
 141              	.LBE115:
 142              	.LBE114:
 143              	.LBB116:
 144              	.LBB117:
 145              		.loc 2 543 0
 146 0082 1A69     		ldr	r2, [r3, #16]
 147 0084 22F00402 		bic	r2, r2, #4
 148 0088 1A61     		str	r2, [r3, #16]
 149              	.LBE117:
 150              	.LBE116:
 122:Drivers/STM32F7xx_HAL_Driver/Src/stm32f7xx_ll_gpio.c **** 
 151              		.loc 1 122 0
 152 008a 0120     		movs	r0, #1
 153              	.LVL10:
 154 008c 7047     		bx	lr
 155              	.LVL11:
 156              	.L17:
 157              	.LBB118:
 158              	.LBB119:
 496:Drivers/STM32F7xx_HAL_Driver/Inc/stm32f7xx_ll_bus.h **** }
 159              		.loc 2 496 0
ARM GAS  /tmp/cc6sio8H.s 			page 17


 160 008e 03F53053 		add	r3, r3, #11264
 161 0092 1A69     		ldr	r2, [r3, #16]
 162 0094 42F00802 		orr	r2, r2, #8
 163 0098 1A61     		str	r2, [r3, #16]
 164              	.LVL12:
 165              	.LBE119:
 166              	.LBE118:
 167              	.LBB120:
 168              	.LBB121:
 169              		.loc 2 543 0
 170 009a 1A69     		ldr	r2, [r3, #16]
 171 009c 22F00802 		bic	r2, r2, #8
 172 00a0 1A61     		str	r2, [r3, #16]
 173              	.LBE121:
 174              	.LBE120:
 122:Drivers/STM32F7xx_HAL_Driver/Src/stm32f7xx_ll_gpio.c **** 
 175              		.loc 1 122 0
 176 00a2 0120     		movs	r0, #1
 177              	.LVL13:
 178 00a4 7047     		bx	lr
 179              	.LVL14:
 180              	.L18:
 181              	.LBB122:
 182              	.LBB123:
 496:Drivers/STM32F7xx_HAL_Driver/Inc/stm32f7xx_ll_bus.h **** }
 183              		.loc 2 496 0
 184 00a6 03F52053 		add	r3, r3, #10240
 185 00aa 1A69     		ldr	r2, [r3, #16]
 186 00ac 42F01002 		orr	r2, r2, #16
 187 00b0 1A61     		str	r2, [r3, #16]
 188              	.LVL15:
 189              	.LBE123:
 190              	.LBE122:
 191              	.LBB124:
 192              	.LBB125:
 193              		.loc 2 543 0
 194 00b2 1A69     		ldr	r2, [r3, #16]
 195 00b4 22F01002 		bic	r2, r2, #16
 196 00b8 1A61     		str	r2, [r3, #16]
 197              	.LBE125:
 198              	.LBE124:
 122:Drivers/STM32F7xx_HAL_Driver/Src/stm32f7xx_ll_gpio.c **** 
 199              		.loc 1 122 0
 200 00ba 0120     		movs	r0, #1
 201              	.LVL16:
 202 00bc 7047     		bx	lr
 203              	.LVL17:
 204              	.L19:
 205              	.LBB126:
 206              	.LBB127:
 496:Drivers/STM32F7xx_HAL_Driver/Inc/stm32f7xx_ll_bus.h **** }
 207              		.loc 2 496 0
 208 00be 03F51053 		add	r3, r3, #9216
 209 00c2 1A69     		ldr	r2, [r3, #16]
 210 00c4 42F02002 		orr	r2, r2, #32
 211 00c8 1A61     		str	r2, [r3, #16]
 212              	.LVL18:
ARM GAS  /tmp/cc6sio8H.s 			page 18


 213              	.LBE127:
 214              	.LBE126:
 215              	.LBB128:
 216              	.LBB129:
 217              		.loc 2 543 0
 218 00ca 1A69     		ldr	r2, [r3, #16]
 219 00cc 22F02002 		bic	r2, r2, #32
 220 00d0 1A61     		str	r2, [r3, #16]
 221              	.LBE129:
 222              	.LBE128:
 122:Drivers/STM32F7xx_HAL_Driver/Src/stm32f7xx_ll_gpio.c **** 
 223              		.loc 1 122 0
 224 00d2 0120     		movs	r0, #1
 225              	.LVL19:
 226 00d4 7047     		bx	lr
 227              	.LVL20:
 228              	.L20:
 229              	.LBB130:
 230              	.LBB131:
 496:Drivers/STM32F7xx_HAL_Driver/Inc/stm32f7xx_ll_bus.h **** }
 231              		.loc 2 496 0
 232 00d6 03F50053 		add	r3, r3, #8192
 233 00da 1A69     		ldr	r2, [r3, #16]
 234 00dc 42F04002 		orr	r2, r2, #64
 235 00e0 1A61     		str	r2, [r3, #16]
 236              	.LVL21:
 237              	.LBE131:
 238              	.LBE130:
 239              	.LBB132:
 240              	.LBB133:
 241              		.loc 2 543 0
 242 00e2 1A69     		ldr	r2, [r3, #16]
 243 00e4 22F04002 		bic	r2, r2, #64
 244 00e8 1A61     		str	r2, [r3, #16]
 245              	.LBE133:
 246              	.LBE132:
 122:Drivers/STM32F7xx_HAL_Driver/Src/stm32f7xx_ll_gpio.c **** 
 247              		.loc 1 122 0
 248 00ea 0120     		movs	r0, #1
 249              	.LVL22:
 250 00ec 7047     		bx	lr
 251              	.LVL23:
 252              	.L21:
 253              	.LBB134:
 254              	.LBB135:
 496:Drivers/STM32F7xx_HAL_Driver/Inc/stm32f7xx_ll_bus.h **** }
 255              		.loc 2 496 0
 256 00ee 03F5E053 		add	r3, r3, #7168
 257 00f2 1A69     		ldr	r2, [r3, #16]
 258 00f4 42F08002 		orr	r2, r2, #128
 259 00f8 1A61     		str	r2, [r3, #16]
 260              	.LVL24:
 261              	.LBE135:
 262              	.LBE134:
 263              	.LBB136:
 264              	.LBB137:
 265              		.loc 2 543 0
ARM GAS  /tmp/cc6sio8H.s 			page 19


 266 00fa 1A69     		ldr	r2, [r3, #16]
 267 00fc 22F08002 		bic	r2, r2, #128
 268 0100 1A61     		str	r2, [r3, #16]
 269              	.LBE137:
 270              	.LBE136:
 122:Drivers/STM32F7xx_HAL_Driver/Src/stm32f7xx_ll_gpio.c **** 
 271              		.loc 1 122 0
 272 0102 0120     		movs	r0, #1
 273              	.LVL25:
 274 0104 7047     		bx	lr
 275              	.LVL26:
 276              	.L22:
 277              	.LBB138:
 278              	.LBB139:
 496:Drivers/STM32F7xx_HAL_Driver/Inc/stm32f7xx_ll_bus.h **** }
 279              		.loc 2 496 0
 280 0106 03F5C053 		add	r3, r3, #6144
 281 010a 1A69     		ldr	r2, [r3, #16]
 282 010c 42F48072 		orr	r2, r2, #256
 283 0110 1A61     		str	r2, [r3, #16]
 284              	.LVL27:
 285              	.LBE139:
 286              	.LBE138:
 287              	.LBB140:
 288              	.LBB141:
 289              		.loc 2 543 0
 290 0112 1A69     		ldr	r2, [r3, #16]
 291 0114 22F48072 		bic	r2, r2, #256
 292 0118 1A61     		str	r2, [r3, #16]
 293              	.LBE141:
 294              	.LBE140:
 122:Drivers/STM32F7xx_HAL_Driver/Src/stm32f7xx_ll_gpio.c **** 
 295              		.loc 1 122 0
 296 011a 0120     		movs	r0, #1
 297              	.LVL28:
 298 011c 7047     		bx	lr
 299              	.LVL29:
 300              	.L23:
 301              	.LBB142:
 302              	.LBB143:
 496:Drivers/STM32F7xx_HAL_Driver/Inc/stm32f7xx_ll_bus.h **** }
 303              		.loc 2 496 0
 304 011e 03F5A053 		add	r3, r3, #5120
 305 0122 1A69     		ldr	r2, [r3, #16]
 306 0124 42F40072 		orr	r2, r2, #512
 307 0128 1A61     		str	r2, [r3, #16]
 308              	.LVL30:
 309              	.LBE143:
 310              	.LBE142:
 311              	.LBB144:
 312              	.LBB145:
 313              		.loc 2 543 0
 314 012a 1A69     		ldr	r2, [r3, #16]
 315 012c 22F40072 		bic	r2, r2, #512
 316 0130 1A61     		str	r2, [r3, #16]
 317              	.LBE145:
 318              	.LBE144:
ARM GAS  /tmp/cc6sio8H.s 			page 20


 122:Drivers/STM32F7xx_HAL_Driver/Src/stm32f7xx_ll_gpio.c **** 
 319              		.loc 1 122 0
 320 0132 0120     		movs	r0, #1
 321              	.LVL31:
 322 0134 7047     		bx	lr
 323              	.LVL32:
 324              	.L24:
 325              	.LBB146:
 326              	.LBB147:
 496:Drivers/STM32F7xx_HAL_Driver/Inc/stm32f7xx_ll_bus.h **** }
 327              		.loc 2 496 0
 328 0136 03F58053 		add	r3, r3, #4096
 329 013a 1A69     		ldr	r2, [r3, #16]
 330 013c 42F48062 		orr	r2, r2, #1024
 331 0140 1A61     		str	r2, [r3, #16]
 332              	.LVL33:
 333              	.LBE147:
 334              	.LBE146:
 335              	.LBB148:
 336              	.LBB149:
 337              		.loc 2 543 0
 338 0142 1A69     		ldr	r2, [r3, #16]
 339 0144 22F48062 		bic	r2, r2, #1024
 340 0148 1A61     		str	r2, [r3, #16]
 341              	.LBE149:
 342              	.LBE148:
 122:Drivers/STM32F7xx_HAL_Driver/Src/stm32f7xx_ll_gpio.c **** 
 343              		.loc 1 122 0
 344 014a 0120     		movs	r0, #1
 345              	.LVL34:
 346 014c 7047     		bx	lr
 347              	.L26:
 348 014e 00BF     		.align	2
 349              	.L25:
 350 0150 00000240 		.word	1073872896
 351 0154 00040240 		.word	1073873920
 352 0158 00080240 		.word	1073874944
 353 015c 000C0240 		.word	1073875968
 354 0160 00100240 		.word	1073876992
 355 0164 00140240 		.word	1073878016
 356 0168 00180240 		.word	1073879040
 357 016c 001C0240 		.word	1073880064
 358 0170 00200240 		.word	1073881088
 359 0174 00240240 		.word	1073882112
 360 0178 00280240 		.word	1073883136
 361              		.cfi_endproc
 362              	.LFE193:
 364              		.section	.text.LL_GPIO_Init,"ax",%progbits
 365              		.align	1
 366              		.global	LL_GPIO_Init
 367              		.syntax unified
 368              		.thumb
 369              		.thumb_func
 370              		.fpu fpv5-d16
 372              	LL_GPIO_Init:
 373              	.LFB194:
 206:Drivers/STM32F7xx_HAL_Driver/Src/stm32f7xx_ll_gpio.c **** 
ARM GAS  /tmp/cc6sio8H.s 			page 21


 207:Drivers/STM32F7xx_HAL_Driver/Src/stm32f7xx_ll_gpio.c **** /**
 208:Drivers/STM32F7xx_HAL_Driver/Src/stm32f7xx_ll_gpio.c ****   * @brief  Initialize GPIO registers according to the specified parameters in GPIO_InitStruct.
 209:Drivers/STM32F7xx_HAL_Driver/Src/stm32f7xx_ll_gpio.c ****   * @param  GPIOx GPIO Port
 210:Drivers/STM32F7xx_HAL_Driver/Src/stm32f7xx_ll_gpio.c ****   * @param  GPIO_InitStruct pointer to a @ref LL_GPIO_InitTypeDef structure
 211:Drivers/STM32F7xx_HAL_Driver/Src/stm32f7xx_ll_gpio.c ****   *         that contains the configuration information for the specified GPIO peripheral.
 212:Drivers/STM32F7xx_HAL_Driver/Src/stm32f7xx_ll_gpio.c ****   * @retval An ErrorStatus enumeration value:
 213:Drivers/STM32F7xx_HAL_Driver/Src/stm32f7xx_ll_gpio.c ****   *          - SUCCESS: GPIO registers are initialized according to GPIO_InitStruct content
 214:Drivers/STM32F7xx_HAL_Driver/Src/stm32f7xx_ll_gpio.c ****   *          - ERROR:   Not applicable
 215:Drivers/STM32F7xx_HAL_Driver/Src/stm32f7xx_ll_gpio.c ****   */
 216:Drivers/STM32F7xx_HAL_Driver/Src/stm32f7xx_ll_gpio.c **** ErrorStatus LL_GPIO_Init(GPIO_TypeDef *GPIOx, LL_GPIO_InitTypeDef *GPIO_InitStruct)
 217:Drivers/STM32F7xx_HAL_Driver/Src/stm32f7xx_ll_gpio.c **** {
 374              		.loc 1 217 0
 375              		.cfi_startproc
 376              		@ args = 0, pretend = 0, frame = 0
 377              		@ frame_needed = 0, uses_anonymous_args = 0
 378              		@ link register save eliminated.
 379              	.LVL35:
 380 0000 F0B4     		push	{r4, r5, r6, r7}
 381              	.LCFI0:
 382              		.cfi_def_cfa_offset 16
 383              		.cfi_offset 4, -16
 384              		.cfi_offset 5, -12
 385              		.cfi_offset 6, -8
 386              		.cfi_offset 7, -4
 387              	.LVL36:
 218:Drivers/STM32F7xx_HAL_Driver/Src/stm32f7xx_ll_gpio.c ****   uint32_t pinpos     = 0x00000000U;
 219:Drivers/STM32F7xx_HAL_Driver/Src/stm32f7xx_ll_gpio.c ****   uint32_t currentpin = 0x00000000U;
 220:Drivers/STM32F7xx_HAL_Driver/Src/stm32f7xx_ll_gpio.c **** 
 221:Drivers/STM32F7xx_HAL_Driver/Src/stm32f7xx_ll_gpio.c ****   /* Check the parameters */
 222:Drivers/STM32F7xx_HAL_Driver/Src/stm32f7xx_ll_gpio.c ****   assert_param(IS_GPIO_ALL_INSTANCE(GPIOx));
 223:Drivers/STM32F7xx_HAL_Driver/Src/stm32f7xx_ll_gpio.c ****   assert_param(IS_LL_GPIO_PIN(GPIO_InitStruct->Pin));
 224:Drivers/STM32F7xx_HAL_Driver/Src/stm32f7xx_ll_gpio.c ****   assert_param(IS_LL_GPIO_MODE(GPIO_InitStruct->Mode));
 225:Drivers/STM32F7xx_HAL_Driver/Src/stm32f7xx_ll_gpio.c ****   assert_param(IS_LL_GPIO_PULL(GPIO_InitStruct->Pull));
 226:Drivers/STM32F7xx_HAL_Driver/Src/stm32f7xx_ll_gpio.c **** 
 227:Drivers/STM32F7xx_HAL_Driver/Src/stm32f7xx_ll_gpio.c ****   /* ------------------------- Configure the port pins ---------------- */
 228:Drivers/STM32F7xx_HAL_Driver/Src/stm32f7xx_ll_gpio.c ****   /* Initialize  pinpos on first pin set */
 229:Drivers/STM32F7xx_HAL_Driver/Src/stm32f7xx_ll_gpio.c ****   pinpos = POSITION_VAL(GPIO_InitStruct->Pin);
 388              		.loc 1 229 0
 389 0002 0A68     		ldr	r2, [r1]
 390              	.LVL37:
 391              	.LBB150:
 392              	.LBB151:
 393              		.file 3 "Drivers/CMSIS/Include/cmsis_gcc.h"
   1:Drivers/CMSIS/Include/cmsis_gcc.h **** /**************************************************************************//**
   2:Drivers/CMSIS/Include/cmsis_gcc.h ****  * @file     cmsis_gcc.h
   3:Drivers/CMSIS/Include/cmsis_gcc.h ****  * @brief    CMSIS Cortex-M Core Function/Instruction Header File
   4:Drivers/CMSIS/Include/cmsis_gcc.h ****  * @version  V4.30
   5:Drivers/CMSIS/Include/cmsis_gcc.h ****  * @date     20. October 2015
   6:Drivers/CMSIS/Include/cmsis_gcc.h ****  ******************************************************************************/
   7:Drivers/CMSIS/Include/cmsis_gcc.h **** /* Copyright (c) 2009 - 2015 ARM LIMITED
   8:Drivers/CMSIS/Include/cmsis_gcc.h **** 
   9:Drivers/CMSIS/Include/cmsis_gcc.h ****    All rights reserved.
  10:Drivers/CMSIS/Include/cmsis_gcc.h ****    Redistribution and use in source and binary forms, with or without
  11:Drivers/CMSIS/Include/cmsis_gcc.h ****    modification, are permitted provided that the following conditions are met:
  12:Drivers/CMSIS/Include/cmsis_gcc.h ****    - Redistributions of source code must retain the above copyright
  13:Drivers/CMSIS/Include/cmsis_gcc.h ****      notice, this list of conditions and the following disclaimer.
  14:Drivers/CMSIS/Include/cmsis_gcc.h ****    - Redistributions in binary form must reproduce the above copyright
ARM GAS  /tmp/cc6sio8H.s 			page 22


  15:Drivers/CMSIS/Include/cmsis_gcc.h ****      notice, this list of conditions and the following disclaimer in the
  16:Drivers/CMSIS/Include/cmsis_gcc.h ****      documentation and/or other materials provided with the distribution.
  17:Drivers/CMSIS/Include/cmsis_gcc.h ****    - Neither the name of ARM nor the names of its contributors may be used
  18:Drivers/CMSIS/Include/cmsis_gcc.h ****      to endorse or promote products derived from this software without
  19:Drivers/CMSIS/Include/cmsis_gcc.h ****      specific prior written permission.
  20:Drivers/CMSIS/Include/cmsis_gcc.h ****    *
  21:Drivers/CMSIS/Include/cmsis_gcc.h ****    THIS SOFTWARE IS PROVIDED BY THE COPYRIGHT HOLDERS AND CONTRIBUTORS "AS IS"
  22:Drivers/CMSIS/Include/cmsis_gcc.h ****    AND ANY EXPRESS OR IMPLIED WARRANTIES, INCLUDING, BUT NOT LIMITED TO, THE
  23:Drivers/CMSIS/Include/cmsis_gcc.h ****    IMPLIED WARRANTIES OF MERCHANTABILITY AND FITNESS FOR A PARTICULAR PURPOSE
  24:Drivers/CMSIS/Include/cmsis_gcc.h ****    ARE DISCLAIMED. IN NO EVENT SHALL COPYRIGHT HOLDERS AND CONTRIBUTORS BE
  25:Drivers/CMSIS/Include/cmsis_gcc.h ****    LIABLE FOR ANY DIRECT, INDIRECT, INCIDENTAL, SPECIAL, EXEMPLARY, OR
  26:Drivers/CMSIS/Include/cmsis_gcc.h ****    CONSEQUENTIAL DAMAGES (INCLUDING, BUT NOT LIMITED TO, PROCUREMENT OF
  27:Drivers/CMSIS/Include/cmsis_gcc.h ****    SUBSTITUTE GOODS OR SERVICES; LOSS OF USE, DATA, OR PROFITS; OR BUSINESS
  28:Drivers/CMSIS/Include/cmsis_gcc.h ****    INTERRUPTION) HOWEVER CAUSED AND ON ANY THEORY OF LIABILITY, WHETHER IN
  29:Drivers/CMSIS/Include/cmsis_gcc.h ****    CONTRACT, STRICT LIABILITY, OR TORT (INCLUDING NEGLIGENCE OR OTHERWISE)
  30:Drivers/CMSIS/Include/cmsis_gcc.h ****    ARISING IN ANY WAY OUT OF THE USE OF THIS SOFTWARE, EVEN IF ADVISED OF THE
  31:Drivers/CMSIS/Include/cmsis_gcc.h ****    POSSIBILITY OF SUCH DAMAGE.
  32:Drivers/CMSIS/Include/cmsis_gcc.h ****    ---------------------------------------------------------------------------*/
  33:Drivers/CMSIS/Include/cmsis_gcc.h **** 
  34:Drivers/CMSIS/Include/cmsis_gcc.h **** 
  35:Drivers/CMSIS/Include/cmsis_gcc.h **** #ifndef __CMSIS_GCC_H
  36:Drivers/CMSIS/Include/cmsis_gcc.h **** #define __CMSIS_GCC_H
  37:Drivers/CMSIS/Include/cmsis_gcc.h **** 
  38:Drivers/CMSIS/Include/cmsis_gcc.h **** /* ignore some GCC warnings */
  39:Drivers/CMSIS/Include/cmsis_gcc.h **** #if defined ( __GNUC__ )
  40:Drivers/CMSIS/Include/cmsis_gcc.h **** #pragma GCC diagnostic push
  41:Drivers/CMSIS/Include/cmsis_gcc.h **** #pragma GCC diagnostic ignored "-Wsign-conversion"
  42:Drivers/CMSIS/Include/cmsis_gcc.h **** #pragma GCC diagnostic ignored "-Wconversion"
  43:Drivers/CMSIS/Include/cmsis_gcc.h **** #pragma GCC diagnostic ignored "-Wunused-parameter"
  44:Drivers/CMSIS/Include/cmsis_gcc.h **** #endif
  45:Drivers/CMSIS/Include/cmsis_gcc.h **** 
  46:Drivers/CMSIS/Include/cmsis_gcc.h **** 
  47:Drivers/CMSIS/Include/cmsis_gcc.h **** /* ###########################  Core Function Access  ########################### */
  48:Drivers/CMSIS/Include/cmsis_gcc.h **** /** \ingroup  CMSIS_Core_FunctionInterface
  49:Drivers/CMSIS/Include/cmsis_gcc.h ****     \defgroup CMSIS_Core_RegAccFunctions CMSIS Core Register Access Functions
  50:Drivers/CMSIS/Include/cmsis_gcc.h ****   @{
  51:Drivers/CMSIS/Include/cmsis_gcc.h ****  */
  52:Drivers/CMSIS/Include/cmsis_gcc.h **** 
  53:Drivers/CMSIS/Include/cmsis_gcc.h **** /**
  54:Drivers/CMSIS/Include/cmsis_gcc.h ****   \brief   Enable IRQ Interrupts
  55:Drivers/CMSIS/Include/cmsis_gcc.h ****   \details Enables IRQ interrupts by clearing the I-bit in the CPSR.
  56:Drivers/CMSIS/Include/cmsis_gcc.h ****            Can only be executed in Privileged modes.
  57:Drivers/CMSIS/Include/cmsis_gcc.h ****  */
  58:Drivers/CMSIS/Include/cmsis_gcc.h **** __attribute__( ( always_inline ) ) __STATIC_INLINE void __enable_irq(void)
  59:Drivers/CMSIS/Include/cmsis_gcc.h **** {
  60:Drivers/CMSIS/Include/cmsis_gcc.h ****   __ASM volatile ("cpsie i" : : : "memory");
  61:Drivers/CMSIS/Include/cmsis_gcc.h **** }
  62:Drivers/CMSIS/Include/cmsis_gcc.h **** 
  63:Drivers/CMSIS/Include/cmsis_gcc.h **** 
  64:Drivers/CMSIS/Include/cmsis_gcc.h **** /**
  65:Drivers/CMSIS/Include/cmsis_gcc.h ****   \brief   Disable IRQ Interrupts
  66:Drivers/CMSIS/Include/cmsis_gcc.h ****   \details Disables IRQ interrupts by setting the I-bit in the CPSR.
  67:Drivers/CMSIS/Include/cmsis_gcc.h ****   Can only be executed in Privileged modes.
  68:Drivers/CMSIS/Include/cmsis_gcc.h ****  */
  69:Drivers/CMSIS/Include/cmsis_gcc.h **** __attribute__( ( always_inline ) ) __STATIC_INLINE void __disable_irq(void)
  70:Drivers/CMSIS/Include/cmsis_gcc.h **** {
  71:Drivers/CMSIS/Include/cmsis_gcc.h ****   __ASM volatile ("cpsid i" : : : "memory");
ARM GAS  /tmp/cc6sio8H.s 			page 23


  72:Drivers/CMSIS/Include/cmsis_gcc.h **** }
  73:Drivers/CMSIS/Include/cmsis_gcc.h **** 
  74:Drivers/CMSIS/Include/cmsis_gcc.h **** 
  75:Drivers/CMSIS/Include/cmsis_gcc.h **** /**
  76:Drivers/CMSIS/Include/cmsis_gcc.h ****   \brief   Get Control Register
  77:Drivers/CMSIS/Include/cmsis_gcc.h ****   \details Returns the content of the Control Register.
  78:Drivers/CMSIS/Include/cmsis_gcc.h ****   \return               Control Register value
  79:Drivers/CMSIS/Include/cmsis_gcc.h ****  */
  80:Drivers/CMSIS/Include/cmsis_gcc.h **** __attribute__( ( always_inline ) ) __STATIC_INLINE uint32_t __get_CONTROL(void)
  81:Drivers/CMSIS/Include/cmsis_gcc.h **** {
  82:Drivers/CMSIS/Include/cmsis_gcc.h ****   uint32_t result;
  83:Drivers/CMSIS/Include/cmsis_gcc.h **** 
  84:Drivers/CMSIS/Include/cmsis_gcc.h ****   __ASM volatile ("MRS %0, control" : "=r" (result) );
  85:Drivers/CMSIS/Include/cmsis_gcc.h ****   return(result);
  86:Drivers/CMSIS/Include/cmsis_gcc.h **** }
  87:Drivers/CMSIS/Include/cmsis_gcc.h **** 
  88:Drivers/CMSIS/Include/cmsis_gcc.h **** 
  89:Drivers/CMSIS/Include/cmsis_gcc.h **** /**
  90:Drivers/CMSIS/Include/cmsis_gcc.h ****   \brief   Set Control Register
  91:Drivers/CMSIS/Include/cmsis_gcc.h ****   \details Writes the given value to the Control Register.
  92:Drivers/CMSIS/Include/cmsis_gcc.h ****   \param [in]    control  Control Register value to set
  93:Drivers/CMSIS/Include/cmsis_gcc.h ****  */
  94:Drivers/CMSIS/Include/cmsis_gcc.h **** __attribute__( ( always_inline ) ) __STATIC_INLINE void __set_CONTROL(uint32_t control)
  95:Drivers/CMSIS/Include/cmsis_gcc.h **** {
  96:Drivers/CMSIS/Include/cmsis_gcc.h ****   __ASM volatile ("MSR control, %0" : : "r" (control) : "memory");
  97:Drivers/CMSIS/Include/cmsis_gcc.h **** }
  98:Drivers/CMSIS/Include/cmsis_gcc.h **** 
  99:Drivers/CMSIS/Include/cmsis_gcc.h **** 
 100:Drivers/CMSIS/Include/cmsis_gcc.h **** /**
 101:Drivers/CMSIS/Include/cmsis_gcc.h ****   \brief   Get IPSR Register
 102:Drivers/CMSIS/Include/cmsis_gcc.h ****   \details Returns the content of the IPSR Register.
 103:Drivers/CMSIS/Include/cmsis_gcc.h ****   \return               IPSR Register value
 104:Drivers/CMSIS/Include/cmsis_gcc.h ****  */
 105:Drivers/CMSIS/Include/cmsis_gcc.h **** __attribute__( ( always_inline ) ) __STATIC_INLINE uint32_t __get_IPSR(void)
 106:Drivers/CMSIS/Include/cmsis_gcc.h **** {
 107:Drivers/CMSIS/Include/cmsis_gcc.h ****   uint32_t result;
 108:Drivers/CMSIS/Include/cmsis_gcc.h **** 
 109:Drivers/CMSIS/Include/cmsis_gcc.h ****   __ASM volatile ("MRS %0, ipsr" : "=r" (result) );
 110:Drivers/CMSIS/Include/cmsis_gcc.h ****   return(result);
 111:Drivers/CMSIS/Include/cmsis_gcc.h **** }
 112:Drivers/CMSIS/Include/cmsis_gcc.h **** 
 113:Drivers/CMSIS/Include/cmsis_gcc.h **** 
 114:Drivers/CMSIS/Include/cmsis_gcc.h **** /**
 115:Drivers/CMSIS/Include/cmsis_gcc.h ****   \brief   Get APSR Register
 116:Drivers/CMSIS/Include/cmsis_gcc.h ****   \details Returns the content of the APSR Register.
 117:Drivers/CMSIS/Include/cmsis_gcc.h ****   \return               APSR Register value
 118:Drivers/CMSIS/Include/cmsis_gcc.h ****  */
 119:Drivers/CMSIS/Include/cmsis_gcc.h **** __attribute__( ( always_inline ) ) __STATIC_INLINE uint32_t __get_APSR(void)
 120:Drivers/CMSIS/Include/cmsis_gcc.h **** {
 121:Drivers/CMSIS/Include/cmsis_gcc.h ****   uint32_t result;
 122:Drivers/CMSIS/Include/cmsis_gcc.h **** 
 123:Drivers/CMSIS/Include/cmsis_gcc.h ****   __ASM volatile ("MRS %0, apsr" : "=r" (result) );
 124:Drivers/CMSIS/Include/cmsis_gcc.h ****   return(result);
 125:Drivers/CMSIS/Include/cmsis_gcc.h **** }
 126:Drivers/CMSIS/Include/cmsis_gcc.h **** 
 127:Drivers/CMSIS/Include/cmsis_gcc.h **** 
 128:Drivers/CMSIS/Include/cmsis_gcc.h **** /**
ARM GAS  /tmp/cc6sio8H.s 			page 24


 129:Drivers/CMSIS/Include/cmsis_gcc.h ****   \brief   Get xPSR Register
 130:Drivers/CMSIS/Include/cmsis_gcc.h ****   \details Returns the content of the xPSR Register.
 131:Drivers/CMSIS/Include/cmsis_gcc.h **** 
 132:Drivers/CMSIS/Include/cmsis_gcc.h ****     \return               xPSR Register value
 133:Drivers/CMSIS/Include/cmsis_gcc.h ****  */
 134:Drivers/CMSIS/Include/cmsis_gcc.h **** __attribute__( ( always_inline ) ) __STATIC_INLINE uint32_t __get_xPSR(void)
 135:Drivers/CMSIS/Include/cmsis_gcc.h **** {
 136:Drivers/CMSIS/Include/cmsis_gcc.h ****   uint32_t result;
 137:Drivers/CMSIS/Include/cmsis_gcc.h **** 
 138:Drivers/CMSIS/Include/cmsis_gcc.h ****   __ASM volatile ("MRS %0, xpsr" : "=r" (result) );
 139:Drivers/CMSIS/Include/cmsis_gcc.h ****   return(result);
 140:Drivers/CMSIS/Include/cmsis_gcc.h **** }
 141:Drivers/CMSIS/Include/cmsis_gcc.h **** 
 142:Drivers/CMSIS/Include/cmsis_gcc.h **** 
 143:Drivers/CMSIS/Include/cmsis_gcc.h **** /**
 144:Drivers/CMSIS/Include/cmsis_gcc.h ****   \brief   Get Process Stack Pointer
 145:Drivers/CMSIS/Include/cmsis_gcc.h ****   \details Returns the current value of the Process Stack Pointer (PSP).
 146:Drivers/CMSIS/Include/cmsis_gcc.h ****   \return               PSP Register value
 147:Drivers/CMSIS/Include/cmsis_gcc.h ****  */
 148:Drivers/CMSIS/Include/cmsis_gcc.h **** __attribute__( ( always_inline ) ) __STATIC_INLINE uint32_t __get_PSP(void)
 149:Drivers/CMSIS/Include/cmsis_gcc.h **** {
 150:Drivers/CMSIS/Include/cmsis_gcc.h ****   register uint32_t result;
 151:Drivers/CMSIS/Include/cmsis_gcc.h **** 
 152:Drivers/CMSIS/Include/cmsis_gcc.h ****   __ASM volatile ("MRS %0, psp\n"  : "=r" (result) );
 153:Drivers/CMSIS/Include/cmsis_gcc.h ****   return(result);
 154:Drivers/CMSIS/Include/cmsis_gcc.h **** }
 155:Drivers/CMSIS/Include/cmsis_gcc.h **** 
 156:Drivers/CMSIS/Include/cmsis_gcc.h **** 
 157:Drivers/CMSIS/Include/cmsis_gcc.h **** /**
 158:Drivers/CMSIS/Include/cmsis_gcc.h ****   \brief   Set Process Stack Pointer
 159:Drivers/CMSIS/Include/cmsis_gcc.h ****   \details Assigns the given value to the Process Stack Pointer (PSP).
 160:Drivers/CMSIS/Include/cmsis_gcc.h ****   \param [in]    topOfProcStack  Process Stack Pointer value to set
 161:Drivers/CMSIS/Include/cmsis_gcc.h ****  */
 162:Drivers/CMSIS/Include/cmsis_gcc.h **** __attribute__( ( always_inline ) ) __STATIC_INLINE void __set_PSP(uint32_t topOfProcStack)
 163:Drivers/CMSIS/Include/cmsis_gcc.h **** {
 164:Drivers/CMSIS/Include/cmsis_gcc.h ****   __ASM volatile ("MSR psp, %0\n" : : "r" (topOfProcStack) : "sp");
 165:Drivers/CMSIS/Include/cmsis_gcc.h **** }
 166:Drivers/CMSIS/Include/cmsis_gcc.h **** 
 167:Drivers/CMSIS/Include/cmsis_gcc.h **** 
 168:Drivers/CMSIS/Include/cmsis_gcc.h **** /**
 169:Drivers/CMSIS/Include/cmsis_gcc.h ****   \brief   Get Main Stack Pointer
 170:Drivers/CMSIS/Include/cmsis_gcc.h ****   \details Returns the current value of the Main Stack Pointer (MSP).
 171:Drivers/CMSIS/Include/cmsis_gcc.h ****   \return               MSP Register value
 172:Drivers/CMSIS/Include/cmsis_gcc.h ****  */
 173:Drivers/CMSIS/Include/cmsis_gcc.h **** __attribute__( ( always_inline ) ) __STATIC_INLINE uint32_t __get_MSP(void)
 174:Drivers/CMSIS/Include/cmsis_gcc.h **** {
 175:Drivers/CMSIS/Include/cmsis_gcc.h ****   register uint32_t result;
 176:Drivers/CMSIS/Include/cmsis_gcc.h **** 
 177:Drivers/CMSIS/Include/cmsis_gcc.h ****   __ASM volatile ("MRS %0, msp\n" : "=r" (result) );
 178:Drivers/CMSIS/Include/cmsis_gcc.h ****   return(result);
 179:Drivers/CMSIS/Include/cmsis_gcc.h **** }
 180:Drivers/CMSIS/Include/cmsis_gcc.h **** 
 181:Drivers/CMSIS/Include/cmsis_gcc.h **** 
 182:Drivers/CMSIS/Include/cmsis_gcc.h **** /**
 183:Drivers/CMSIS/Include/cmsis_gcc.h ****   \brief   Set Main Stack Pointer
 184:Drivers/CMSIS/Include/cmsis_gcc.h ****   \details Assigns the given value to the Main Stack Pointer (MSP).
 185:Drivers/CMSIS/Include/cmsis_gcc.h **** 
ARM GAS  /tmp/cc6sio8H.s 			page 25


 186:Drivers/CMSIS/Include/cmsis_gcc.h ****     \param [in]    topOfMainStack  Main Stack Pointer value to set
 187:Drivers/CMSIS/Include/cmsis_gcc.h ****  */
 188:Drivers/CMSIS/Include/cmsis_gcc.h **** __attribute__( ( always_inline ) ) __STATIC_INLINE void __set_MSP(uint32_t topOfMainStack)
 189:Drivers/CMSIS/Include/cmsis_gcc.h **** {
 190:Drivers/CMSIS/Include/cmsis_gcc.h ****   __ASM volatile ("MSR msp, %0\n" : : "r" (topOfMainStack) : "sp");
 191:Drivers/CMSIS/Include/cmsis_gcc.h **** }
 192:Drivers/CMSIS/Include/cmsis_gcc.h **** 
 193:Drivers/CMSIS/Include/cmsis_gcc.h **** 
 194:Drivers/CMSIS/Include/cmsis_gcc.h **** /**
 195:Drivers/CMSIS/Include/cmsis_gcc.h ****   \brief   Get Priority Mask
 196:Drivers/CMSIS/Include/cmsis_gcc.h ****   \details Returns the current state of the priority mask bit from the Priority Mask Register.
 197:Drivers/CMSIS/Include/cmsis_gcc.h ****   \return               Priority Mask value
 198:Drivers/CMSIS/Include/cmsis_gcc.h ****  */
 199:Drivers/CMSIS/Include/cmsis_gcc.h **** __attribute__( ( always_inline ) ) __STATIC_INLINE uint32_t __get_PRIMASK(void)
 200:Drivers/CMSIS/Include/cmsis_gcc.h **** {
 201:Drivers/CMSIS/Include/cmsis_gcc.h ****   uint32_t result;
 202:Drivers/CMSIS/Include/cmsis_gcc.h **** 
 203:Drivers/CMSIS/Include/cmsis_gcc.h ****   __ASM volatile ("MRS %0, primask" : "=r" (result) );
 204:Drivers/CMSIS/Include/cmsis_gcc.h ****   return(result);
 205:Drivers/CMSIS/Include/cmsis_gcc.h **** }
 206:Drivers/CMSIS/Include/cmsis_gcc.h **** 
 207:Drivers/CMSIS/Include/cmsis_gcc.h **** 
 208:Drivers/CMSIS/Include/cmsis_gcc.h **** /**
 209:Drivers/CMSIS/Include/cmsis_gcc.h ****   \brief   Set Priority Mask
 210:Drivers/CMSIS/Include/cmsis_gcc.h ****   \details Assigns the given value to the Priority Mask Register.
 211:Drivers/CMSIS/Include/cmsis_gcc.h ****   \param [in]    priMask  Priority Mask
 212:Drivers/CMSIS/Include/cmsis_gcc.h ****  */
 213:Drivers/CMSIS/Include/cmsis_gcc.h **** __attribute__( ( always_inline ) ) __STATIC_INLINE void __set_PRIMASK(uint32_t priMask)
 214:Drivers/CMSIS/Include/cmsis_gcc.h **** {
 215:Drivers/CMSIS/Include/cmsis_gcc.h ****   __ASM volatile ("MSR primask, %0" : : "r" (priMask) : "memory");
 216:Drivers/CMSIS/Include/cmsis_gcc.h **** }
 217:Drivers/CMSIS/Include/cmsis_gcc.h **** 
 218:Drivers/CMSIS/Include/cmsis_gcc.h **** 
 219:Drivers/CMSIS/Include/cmsis_gcc.h **** #if       (__CORTEX_M >= 0x03U)
 220:Drivers/CMSIS/Include/cmsis_gcc.h **** 
 221:Drivers/CMSIS/Include/cmsis_gcc.h **** /**
 222:Drivers/CMSIS/Include/cmsis_gcc.h ****   \brief   Enable FIQ
 223:Drivers/CMSIS/Include/cmsis_gcc.h ****   \details Enables FIQ interrupts by clearing the F-bit in the CPSR.
 224:Drivers/CMSIS/Include/cmsis_gcc.h ****            Can only be executed in Privileged modes.
 225:Drivers/CMSIS/Include/cmsis_gcc.h ****  */
 226:Drivers/CMSIS/Include/cmsis_gcc.h **** __attribute__( ( always_inline ) ) __STATIC_INLINE void __enable_fault_irq(void)
 227:Drivers/CMSIS/Include/cmsis_gcc.h **** {
 228:Drivers/CMSIS/Include/cmsis_gcc.h ****   __ASM volatile ("cpsie f" : : : "memory");
 229:Drivers/CMSIS/Include/cmsis_gcc.h **** }
 230:Drivers/CMSIS/Include/cmsis_gcc.h **** 
 231:Drivers/CMSIS/Include/cmsis_gcc.h **** 
 232:Drivers/CMSIS/Include/cmsis_gcc.h **** /**
 233:Drivers/CMSIS/Include/cmsis_gcc.h ****   \brief   Disable FIQ
 234:Drivers/CMSIS/Include/cmsis_gcc.h ****   \details Disables FIQ interrupts by setting the F-bit in the CPSR.
 235:Drivers/CMSIS/Include/cmsis_gcc.h ****            Can only be executed in Privileged modes.
 236:Drivers/CMSIS/Include/cmsis_gcc.h ****  */
 237:Drivers/CMSIS/Include/cmsis_gcc.h **** __attribute__( ( always_inline ) ) __STATIC_INLINE void __disable_fault_irq(void)
 238:Drivers/CMSIS/Include/cmsis_gcc.h **** {
 239:Drivers/CMSIS/Include/cmsis_gcc.h ****   __ASM volatile ("cpsid f" : : : "memory");
 240:Drivers/CMSIS/Include/cmsis_gcc.h **** }
 241:Drivers/CMSIS/Include/cmsis_gcc.h **** 
 242:Drivers/CMSIS/Include/cmsis_gcc.h **** 
ARM GAS  /tmp/cc6sio8H.s 			page 26


 243:Drivers/CMSIS/Include/cmsis_gcc.h **** /**
 244:Drivers/CMSIS/Include/cmsis_gcc.h ****   \brief   Get Base Priority
 245:Drivers/CMSIS/Include/cmsis_gcc.h ****   \details Returns the current value of the Base Priority register.
 246:Drivers/CMSIS/Include/cmsis_gcc.h ****   \return               Base Priority register value
 247:Drivers/CMSIS/Include/cmsis_gcc.h ****  */
 248:Drivers/CMSIS/Include/cmsis_gcc.h **** __attribute__( ( always_inline ) ) __STATIC_INLINE uint32_t __get_BASEPRI(void)
 249:Drivers/CMSIS/Include/cmsis_gcc.h **** {
 250:Drivers/CMSIS/Include/cmsis_gcc.h ****   uint32_t result;
 251:Drivers/CMSIS/Include/cmsis_gcc.h **** 
 252:Drivers/CMSIS/Include/cmsis_gcc.h ****   __ASM volatile ("MRS %0, basepri" : "=r" (result) );
 253:Drivers/CMSIS/Include/cmsis_gcc.h ****   return(result);
 254:Drivers/CMSIS/Include/cmsis_gcc.h **** }
 255:Drivers/CMSIS/Include/cmsis_gcc.h **** 
 256:Drivers/CMSIS/Include/cmsis_gcc.h **** 
 257:Drivers/CMSIS/Include/cmsis_gcc.h **** /**
 258:Drivers/CMSIS/Include/cmsis_gcc.h ****   \brief   Set Base Priority
 259:Drivers/CMSIS/Include/cmsis_gcc.h ****   \details Assigns the given value to the Base Priority register.
 260:Drivers/CMSIS/Include/cmsis_gcc.h ****   \param [in]    basePri  Base Priority value to set
 261:Drivers/CMSIS/Include/cmsis_gcc.h ****  */
 262:Drivers/CMSIS/Include/cmsis_gcc.h **** __attribute__( ( always_inline ) ) __STATIC_INLINE void __set_BASEPRI(uint32_t value)
 263:Drivers/CMSIS/Include/cmsis_gcc.h **** {
 264:Drivers/CMSIS/Include/cmsis_gcc.h ****   __ASM volatile ("MSR basepri, %0" : : "r" (value) : "memory");
 265:Drivers/CMSIS/Include/cmsis_gcc.h **** }
 266:Drivers/CMSIS/Include/cmsis_gcc.h **** 
 267:Drivers/CMSIS/Include/cmsis_gcc.h **** 
 268:Drivers/CMSIS/Include/cmsis_gcc.h **** /**
 269:Drivers/CMSIS/Include/cmsis_gcc.h ****   \brief   Set Base Priority with condition
 270:Drivers/CMSIS/Include/cmsis_gcc.h ****   \details Assigns the given value to the Base Priority register only if BASEPRI masking is disable
 271:Drivers/CMSIS/Include/cmsis_gcc.h ****            or the new value increases the BASEPRI priority level.
 272:Drivers/CMSIS/Include/cmsis_gcc.h ****   \param [in]    basePri  Base Priority value to set
 273:Drivers/CMSIS/Include/cmsis_gcc.h ****  */
 274:Drivers/CMSIS/Include/cmsis_gcc.h **** __attribute__( ( always_inline ) ) __STATIC_INLINE void __set_BASEPRI_MAX(uint32_t value)
 275:Drivers/CMSIS/Include/cmsis_gcc.h **** {
 276:Drivers/CMSIS/Include/cmsis_gcc.h ****   __ASM volatile ("MSR basepri_max, %0" : : "r" (value) : "memory");
 277:Drivers/CMSIS/Include/cmsis_gcc.h **** }
 278:Drivers/CMSIS/Include/cmsis_gcc.h **** 
 279:Drivers/CMSIS/Include/cmsis_gcc.h **** 
 280:Drivers/CMSIS/Include/cmsis_gcc.h **** /**
 281:Drivers/CMSIS/Include/cmsis_gcc.h ****   \brief   Get Fault Mask
 282:Drivers/CMSIS/Include/cmsis_gcc.h ****   \details Returns the current value of the Fault Mask register.
 283:Drivers/CMSIS/Include/cmsis_gcc.h ****   \return               Fault Mask register value
 284:Drivers/CMSIS/Include/cmsis_gcc.h ****  */
 285:Drivers/CMSIS/Include/cmsis_gcc.h **** __attribute__( ( always_inline ) ) __STATIC_INLINE uint32_t __get_FAULTMASK(void)
 286:Drivers/CMSIS/Include/cmsis_gcc.h **** {
 287:Drivers/CMSIS/Include/cmsis_gcc.h ****   uint32_t result;
 288:Drivers/CMSIS/Include/cmsis_gcc.h **** 
 289:Drivers/CMSIS/Include/cmsis_gcc.h ****   __ASM volatile ("MRS %0, faultmask" : "=r" (result) );
 290:Drivers/CMSIS/Include/cmsis_gcc.h ****   return(result);
 291:Drivers/CMSIS/Include/cmsis_gcc.h **** }
 292:Drivers/CMSIS/Include/cmsis_gcc.h **** 
 293:Drivers/CMSIS/Include/cmsis_gcc.h **** 
 294:Drivers/CMSIS/Include/cmsis_gcc.h **** /**
 295:Drivers/CMSIS/Include/cmsis_gcc.h ****   \brief   Set Fault Mask
 296:Drivers/CMSIS/Include/cmsis_gcc.h ****   \details Assigns the given value to the Fault Mask register.
 297:Drivers/CMSIS/Include/cmsis_gcc.h ****   \param [in]    faultMask  Fault Mask value to set
 298:Drivers/CMSIS/Include/cmsis_gcc.h ****  */
 299:Drivers/CMSIS/Include/cmsis_gcc.h **** __attribute__( ( always_inline ) ) __STATIC_INLINE void __set_FAULTMASK(uint32_t faultMask)
ARM GAS  /tmp/cc6sio8H.s 			page 27


 300:Drivers/CMSIS/Include/cmsis_gcc.h **** {
 301:Drivers/CMSIS/Include/cmsis_gcc.h ****   __ASM volatile ("MSR faultmask, %0" : : "r" (faultMask) : "memory");
 302:Drivers/CMSIS/Include/cmsis_gcc.h **** }
 303:Drivers/CMSIS/Include/cmsis_gcc.h **** 
 304:Drivers/CMSIS/Include/cmsis_gcc.h **** #endif /* (__CORTEX_M >= 0x03U) */
 305:Drivers/CMSIS/Include/cmsis_gcc.h **** 
 306:Drivers/CMSIS/Include/cmsis_gcc.h **** 
 307:Drivers/CMSIS/Include/cmsis_gcc.h **** #if       (__CORTEX_M == 0x04U) || (__CORTEX_M == 0x07U)
 308:Drivers/CMSIS/Include/cmsis_gcc.h **** 
 309:Drivers/CMSIS/Include/cmsis_gcc.h **** /**
 310:Drivers/CMSIS/Include/cmsis_gcc.h ****   \brief   Get FPSCR
 311:Drivers/CMSIS/Include/cmsis_gcc.h ****   \details Returns the current value of the Floating Point Status/Control register.
 312:Drivers/CMSIS/Include/cmsis_gcc.h ****   \return               Floating Point Status/Control register value
 313:Drivers/CMSIS/Include/cmsis_gcc.h ****  */
 314:Drivers/CMSIS/Include/cmsis_gcc.h **** __attribute__( ( always_inline ) ) __STATIC_INLINE uint32_t __get_FPSCR(void)
 315:Drivers/CMSIS/Include/cmsis_gcc.h **** {
 316:Drivers/CMSIS/Include/cmsis_gcc.h **** #if (__FPU_PRESENT == 1U) && (__FPU_USED == 1U)
 317:Drivers/CMSIS/Include/cmsis_gcc.h ****   uint32_t result;
 318:Drivers/CMSIS/Include/cmsis_gcc.h **** 
 319:Drivers/CMSIS/Include/cmsis_gcc.h ****   /* Empty asm statement works as a scheduling barrier */
 320:Drivers/CMSIS/Include/cmsis_gcc.h ****   __ASM volatile ("");
 321:Drivers/CMSIS/Include/cmsis_gcc.h ****   __ASM volatile ("VMRS %0, fpscr" : "=r" (result) );
 322:Drivers/CMSIS/Include/cmsis_gcc.h ****   __ASM volatile ("");
 323:Drivers/CMSIS/Include/cmsis_gcc.h ****   return(result);
 324:Drivers/CMSIS/Include/cmsis_gcc.h **** #else
 325:Drivers/CMSIS/Include/cmsis_gcc.h ****    return(0);
 326:Drivers/CMSIS/Include/cmsis_gcc.h **** #endif
 327:Drivers/CMSIS/Include/cmsis_gcc.h **** }
 328:Drivers/CMSIS/Include/cmsis_gcc.h **** 
 329:Drivers/CMSIS/Include/cmsis_gcc.h **** 
 330:Drivers/CMSIS/Include/cmsis_gcc.h **** /**
 331:Drivers/CMSIS/Include/cmsis_gcc.h ****   \brief   Set FPSCR
 332:Drivers/CMSIS/Include/cmsis_gcc.h ****   \details Assigns the given value to the Floating Point Status/Control register.
 333:Drivers/CMSIS/Include/cmsis_gcc.h ****   \param [in]    fpscr  Floating Point Status/Control value to set
 334:Drivers/CMSIS/Include/cmsis_gcc.h ****  */
 335:Drivers/CMSIS/Include/cmsis_gcc.h **** __attribute__( ( always_inline ) ) __STATIC_INLINE void __set_FPSCR(uint32_t fpscr)
 336:Drivers/CMSIS/Include/cmsis_gcc.h **** {
 337:Drivers/CMSIS/Include/cmsis_gcc.h **** #if (__FPU_PRESENT == 1U) && (__FPU_USED == 1U)
 338:Drivers/CMSIS/Include/cmsis_gcc.h ****   /* Empty asm statement works as a scheduling barrier */
 339:Drivers/CMSIS/Include/cmsis_gcc.h ****   __ASM volatile ("");
 340:Drivers/CMSIS/Include/cmsis_gcc.h ****   __ASM volatile ("VMSR fpscr, %0" : : "r" (fpscr) : "vfpcc");
 341:Drivers/CMSIS/Include/cmsis_gcc.h ****   __ASM volatile ("");
 342:Drivers/CMSIS/Include/cmsis_gcc.h **** #endif
 343:Drivers/CMSIS/Include/cmsis_gcc.h **** }
 344:Drivers/CMSIS/Include/cmsis_gcc.h **** 
 345:Drivers/CMSIS/Include/cmsis_gcc.h **** #endif /* (__CORTEX_M == 0x04U) || (__CORTEX_M == 0x07U) */
 346:Drivers/CMSIS/Include/cmsis_gcc.h **** 
 347:Drivers/CMSIS/Include/cmsis_gcc.h **** 
 348:Drivers/CMSIS/Include/cmsis_gcc.h **** 
 349:Drivers/CMSIS/Include/cmsis_gcc.h **** /*@} end of CMSIS_Core_RegAccFunctions */
 350:Drivers/CMSIS/Include/cmsis_gcc.h **** 
 351:Drivers/CMSIS/Include/cmsis_gcc.h **** 
 352:Drivers/CMSIS/Include/cmsis_gcc.h **** /* ##########################  Core Instruction Access  ######################### */
 353:Drivers/CMSIS/Include/cmsis_gcc.h **** /** \defgroup CMSIS_Core_InstructionInterface CMSIS Core Instruction Interface
 354:Drivers/CMSIS/Include/cmsis_gcc.h ****   Access to dedicated instructions
 355:Drivers/CMSIS/Include/cmsis_gcc.h ****   @{
 356:Drivers/CMSIS/Include/cmsis_gcc.h **** */
ARM GAS  /tmp/cc6sio8H.s 			page 28


 357:Drivers/CMSIS/Include/cmsis_gcc.h **** 
 358:Drivers/CMSIS/Include/cmsis_gcc.h **** /* Define macros for porting to both thumb1 and thumb2.
 359:Drivers/CMSIS/Include/cmsis_gcc.h ****  * For thumb1, use low register (r0-r7), specified by constraint "l"
 360:Drivers/CMSIS/Include/cmsis_gcc.h ****  * Otherwise, use general registers, specified by constraint "r" */
 361:Drivers/CMSIS/Include/cmsis_gcc.h **** #if defined (__thumb__) && !defined (__thumb2__)
 362:Drivers/CMSIS/Include/cmsis_gcc.h **** #define __CMSIS_GCC_OUT_REG(r) "=l" (r)
 363:Drivers/CMSIS/Include/cmsis_gcc.h **** #define __CMSIS_GCC_USE_REG(r) "l" (r)
 364:Drivers/CMSIS/Include/cmsis_gcc.h **** #else
 365:Drivers/CMSIS/Include/cmsis_gcc.h **** #define __CMSIS_GCC_OUT_REG(r) "=r" (r)
 366:Drivers/CMSIS/Include/cmsis_gcc.h **** #define __CMSIS_GCC_USE_REG(r) "r" (r)
 367:Drivers/CMSIS/Include/cmsis_gcc.h **** #endif
 368:Drivers/CMSIS/Include/cmsis_gcc.h **** 
 369:Drivers/CMSIS/Include/cmsis_gcc.h **** /**
 370:Drivers/CMSIS/Include/cmsis_gcc.h ****   \brief   No Operation
 371:Drivers/CMSIS/Include/cmsis_gcc.h ****   \details No Operation does nothing. This instruction can be used for code alignment purposes.
 372:Drivers/CMSIS/Include/cmsis_gcc.h ****  */
 373:Drivers/CMSIS/Include/cmsis_gcc.h **** __attribute__((always_inline)) __STATIC_INLINE void __NOP(void)
 374:Drivers/CMSIS/Include/cmsis_gcc.h **** {
 375:Drivers/CMSIS/Include/cmsis_gcc.h ****   __ASM volatile ("nop");
 376:Drivers/CMSIS/Include/cmsis_gcc.h **** }
 377:Drivers/CMSIS/Include/cmsis_gcc.h **** 
 378:Drivers/CMSIS/Include/cmsis_gcc.h **** 
 379:Drivers/CMSIS/Include/cmsis_gcc.h **** /**
 380:Drivers/CMSIS/Include/cmsis_gcc.h ****   \brief   Wait For Interrupt
 381:Drivers/CMSIS/Include/cmsis_gcc.h ****   \details Wait For Interrupt is a hint instruction that suspends execution until one of a number o
 382:Drivers/CMSIS/Include/cmsis_gcc.h ****  */
 383:Drivers/CMSIS/Include/cmsis_gcc.h **** __attribute__((always_inline)) __STATIC_INLINE void __WFI(void)
 384:Drivers/CMSIS/Include/cmsis_gcc.h **** {
 385:Drivers/CMSIS/Include/cmsis_gcc.h ****   __ASM volatile ("wfi");
 386:Drivers/CMSIS/Include/cmsis_gcc.h **** }
 387:Drivers/CMSIS/Include/cmsis_gcc.h **** 
 388:Drivers/CMSIS/Include/cmsis_gcc.h **** 
 389:Drivers/CMSIS/Include/cmsis_gcc.h **** /**
 390:Drivers/CMSIS/Include/cmsis_gcc.h ****   \brief   Wait For Event
 391:Drivers/CMSIS/Include/cmsis_gcc.h ****   \details Wait For Event is a hint instruction that permits the processor to enter
 392:Drivers/CMSIS/Include/cmsis_gcc.h ****     a low-power state until one of a number of events occurs.
 393:Drivers/CMSIS/Include/cmsis_gcc.h ****  */
 394:Drivers/CMSIS/Include/cmsis_gcc.h **** __attribute__((always_inline)) __STATIC_INLINE void __WFE(void)
 395:Drivers/CMSIS/Include/cmsis_gcc.h **** {
 396:Drivers/CMSIS/Include/cmsis_gcc.h ****   __ASM volatile ("wfe");
 397:Drivers/CMSIS/Include/cmsis_gcc.h **** }
 398:Drivers/CMSIS/Include/cmsis_gcc.h **** 
 399:Drivers/CMSIS/Include/cmsis_gcc.h **** 
 400:Drivers/CMSIS/Include/cmsis_gcc.h **** /**
 401:Drivers/CMSIS/Include/cmsis_gcc.h ****   \brief   Send Event
 402:Drivers/CMSIS/Include/cmsis_gcc.h ****   \details Send Event is a hint instruction. It causes an event to be signaled to the CPU.
 403:Drivers/CMSIS/Include/cmsis_gcc.h ****  */
 404:Drivers/CMSIS/Include/cmsis_gcc.h **** __attribute__((always_inline)) __STATIC_INLINE void __SEV(void)
 405:Drivers/CMSIS/Include/cmsis_gcc.h **** {
 406:Drivers/CMSIS/Include/cmsis_gcc.h ****   __ASM volatile ("sev");
 407:Drivers/CMSIS/Include/cmsis_gcc.h **** }
 408:Drivers/CMSIS/Include/cmsis_gcc.h **** 
 409:Drivers/CMSIS/Include/cmsis_gcc.h **** 
 410:Drivers/CMSIS/Include/cmsis_gcc.h **** /**
 411:Drivers/CMSIS/Include/cmsis_gcc.h ****   \brief   Instruction Synchronization Barrier
 412:Drivers/CMSIS/Include/cmsis_gcc.h ****   \details Instruction Synchronization Barrier flushes the pipeline in the processor,
 413:Drivers/CMSIS/Include/cmsis_gcc.h ****            so that all instructions following the ISB are fetched from cache or memory,
ARM GAS  /tmp/cc6sio8H.s 			page 29


 414:Drivers/CMSIS/Include/cmsis_gcc.h ****            after the instruction has been completed.
 415:Drivers/CMSIS/Include/cmsis_gcc.h ****  */
 416:Drivers/CMSIS/Include/cmsis_gcc.h **** __attribute__((always_inline)) __STATIC_INLINE void __ISB(void)
 417:Drivers/CMSIS/Include/cmsis_gcc.h **** {
 418:Drivers/CMSIS/Include/cmsis_gcc.h ****   __ASM volatile ("isb 0xF":::"memory");
 419:Drivers/CMSIS/Include/cmsis_gcc.h **** }
 420:Drivers/CMSIS/Include/cmsis_gcc.h **** 
 421:Drivers/CMSIS/Include/cmsis_gcc.h **** 
 422:Drivers/CMSIS/Include/cmsis_gcc.h **** /**
 423:Drivers/CMSIS/Include/cmsis_gcc.h ****   \brief   Data Synchronization Barrier
 424:Drivers/CMSIS/Include/cmsis_gcc.h ****   \details Acts as a special kind of Data Memory Barrier.
 425:Drivers/CMSIS/Include/cmsis_gcc.h ****            It completes when all explicit memory accesses before this instruction complete.
 426:Drivers/CMSIS/Include/cmsis_gcc.h ****  */
 427:Drivers/CMSIS/Include/cmsis_gcc.h **** __attribute__((always_inline)) __STATIC_INLINE void __DSB(void)
 428:Drivers/CMSIS/Include/cmsis_gcc.h **** {
 429:Drivers/CMSIS/Include/cmsis_gcc.h ****   __ASM volatile ("dsb 0xF":::"memory");
 430:Drivers/CMSIS/Include/cmsis_gcc.h **** }
 431:Drivers/CMSIS/Include/cmsis_gcc.h **** 
 432:Drivers/CMSIS/Include/cmsis_gcc.h **** 
 433:Drivers/CMSIS/Include/cmsis_gcc.h **** /**
 434:Drivers/CMSIS/Include/cmsis_gcc.h ****   \brief   Data Memory Barrier
 435:Drivers/CMSIS/Include/cmsis_gcc.h ****   \details Ensures the apparent order of the explicit memory operations before
 436:Drivers/CMSIS/Include/cmsis_gcc.h ****            and after the instruction, without ensuring their completion.
 437:Drivers/CMSIS/Include/cmsis_gcc.h ****  */
 438:Drivers/CMSIS/Include/cmsis_gcc.h **** __attribute__((always_inline)) __STATIC_INLINE void __DMB(void)
 439:Drivers/CMSIS/Include/cmsis_gcc.h **** {
 440:Drivers/CMSIS/Include/cmsis_gcc.h ****   __ASM volatile ("dmb 0xF":::"memory");
 441:Drivers/CMSIS/Include/cmsis_gcc.h **** }
 442:Drivers/CMSIS/Include/cmsis_gcc.h **** 
 443:Drivers/CMSIS/Include/cmsis_gcc.h **** 
 444:Drivers/CMSIS/Include/cmsis_gcc.h **** /**
 445:Drivers/CMSIS/Include/cmsis_gcc.h ****   \brief   Reverse byte order (32 bit)
 446:Drivers/CMSIS/Include/cmsis_gcc.h ****   \details Reverses the byte order in integer value.
 447:Drivers/CMSIS/Include/cmsis_gcc.h ****   \param [in]    value  Value to reverse
 448:Drivers/CMSIS/Include/cmsis_gcc.h ****   \return               Reversed value
 449:Drivers/CMSIS/Include/cmsis_gcc.h ****  */
 450:Drivers/CMSIS/Include/cmsis_gcc.h **** __attribute__((always_inline)) __STATIC_INLINE uint32_t __REV(uint32_t value)
 451:Drivers/CMSIS/Include/cmsis_gcc.h **** {
 452:Drivers/CMSIS/Include/cmsis_gcc.h **** #if (__GNUC__ > 4) || (__GNUC__ == 4 && __GNUC_MINOR__ >= 5)
 453:Drivers/CMSIS/Include/cmsis_gcc.h ****   return __builtin_bswap32(value);
 454:Drivers/CMSIS/Include/cmsis_gcc.h **** #else
 455:Drivers/CMSIS/Include/cmsis_gcc.h ****   uint32_t result;
 456:Drivers/CMSIS/Include/cmsis_gcc.h **** 
 457:Drivers/CMSIS/Include/cmsis_gcc.h ****   __ASM volatile ("rev %0, %1" : __CMSIS_GCC_OUT_REG (result) : __CMSIS_GCC_USE_REG (value) );
 458:Drivers/CMSIS/Include/cmsis_gcc.h ****   return(result);
 459:Drivers/CMSIS/Include/cmsis_gcc.h **** #endif
 460:Drivers/CMSIS/Include/cmsis_gcc.h **** }
 461:Drivers/CMSIS/Include/cmsis_gcc.h **** 
 462:Drivers/CMSIS/Include/cmsis_gcc.h **** 
 463:Drivers/CMSIS/Include/cmsis_gcc.h **** /**
 464:Drivers/CMSIS/Include/cmsis_gcc.h ****   \brief   Reverse byte order (16 bit)
 465:Drivers/CMSIS/Include/cmsis_gcc.h ****   \details Reverses the byte order in two unsigned short values.
 466:Drivers/CMSIS/Include/cmsis_gcc.h ****   \param [in]    value  Value to reverse
 467:Drivers/CMSIS/Include/cmsis_gcc.h ****   \return               Reversed value
 468:Drivers/CMSIS/Include/cmsis_gcc.h ****  */
 469:Drivers/CMSIS/Include/cmsis_gcc.h **** __attribute__((always_inline)) __STATIC_INLINE uint32_t __REV16(uint32_t value)
 470:Drivers/CMSIS/Include/cmsis_gcc.h **** {
ARM GAS  /tmp/cc6sio8H.s 			page 30


 471:Drivers/CMSIS/Include/cmsis_gcc.h ****   uint32_t result;
 472:Drivers/CMSIS/Include/cmsis_gcc.h **** 
 473:Drivers/CMSIS/Include/cmsis_gcc.h ****   __ASM volatile ("rev16 %0, %1" : __CMSIS_GCC_OUT_REG (result) : __CMSIS_GCC_USE_REG (value) );
 474:Drivers/CMSIS/Include/cmsis_gcc.h ****   return(result);
 475:Drivers/CMSIS/Include/cmsis_gcc.h **** }
 476:Drivers/CMSIS/Include/cmsis_gcc.h **** 
 477:Drivers/CMSIS/Include/cmsis_gcc.h **** 
 478:Drivers/CMSIS/Include/cmsis_gcc.h **** /**
 479:Drivers/CMSIS/Include/cmsis_gcc.h ****   \brief   Reverse byte order in signed short value
 480:Drivers/CMSIS/Include/cmsis_gcc.h ****   \details Reverses the byte order in a signed short value with sign extension to integer.
 481:Drivers/CMSIS/Include/cmsis_gcc.h ****   \param [in]    value  Value to reverse
 482:Drivers/CMSIS/Include/cmsis_gcc.h ****   \return               Reversed value
 483:Drivers/CMSIS/Include/cmsis_gcc.h ****  */
 484:Drivers/CMSIS/Include/cmsis_gcc.h **** __attribute__((always_inline)) __STATIC_INLINE int32_t __REVSH(int32_t value)
 485:Drivers/CMSIS/Include/cmsis_gcc.h **** {
 486:Drivers/CMSIS/Include/cmsis_gcc.h **** #if (__GNUC__ > 4) || (__GNUC__ == 4 && __GNUC_MINOR__ >= 8)
 487:Drivers/CMSIS/Include/cmsis_gcc.h ****   return (short)__builtin_bswap16(value);
 488:Drivers/CMSIS/Include/cmsis_gcc.h **** #else
 489:Drivers/CMSIS/Include/cmsis_gcc.h ****   int32_t result;
 490:Drivers/CMSIS/Include/cmsis_gcc.h **** 
 491:Drivers/CMSIS/Include/cmsis_gcc.h ****   __ASM volatile ("revsh %0, %1" : __CMSIS_GCC_OUT_REG (result) : __CMSIS_GCC_USE_REG (value) );
 492:Drivers/CMSIS/Include/cmsis_gcc.h ****   return(result);
 493:Drivers/CMSIS/Include/cmsis_gcc.h **** #endif
 494:Drivers/CMSIS/Include/cmsis_gcc.h **** }
 495:Drivers/CMSIS/Include/cmsis_gcc.h **** 
 496:Drivers/CMSIS/Include/cmsis_gcc.h **** 
 497:Drivers/CMSIS/Include/cmsis_gcc.h **** /**
 498:Drivers/CMSIS/Include/cmsis_gcc.h ****   \brief   Rotate Right in unsigned value (32 bit)
 499:Drivers/CMSIS/Include/cmsis_gcc.h ****   \details Rotate Right (immediate) provides the value of the contents of a register rotated by a v
 500:Drivers/CMSIS/Include/cmsis_gcc.h ****   \param [in]    value  Value to rotate
 501:Drivers/CMSIS/Include/cmsis_gcc.h ****   \param [in]    value  Number of Bits to rotate
 502:Drivers/CMSIS/Include/cmsis_gcc.h ****   \return               Rotated value
 503:Drivers/CMSIS/Include/cmsis_gcc.h ****  */
 504:Drivers/CMSIS/Include/cmsis_gcc.h **** __attribute__((always_inline)) __STATIC_INLINE uint32_t __ROR(uint32_t op1, uint32_t op2)
 505:Drivers/CMSIS/Include/cmsis_gcc.h **** {
 506:Drivers/CMSIS/Include/cmsis_gcc.h ****   return (op1 >> op2) | (op1 << (32U - op2));
 507:Drivers/CMSIS/Include/cmsis_gcc.h **** }
 508:Drivers/CMSIS/Include/cmsis_gcc.h **** 
 509:Drivers/CMSIS/Include/cmsis_gcc.h **** 
 510:Drivers/CMSIS/Include/cmsis_gcc.h **** /**
 511:Drivers/CMSIS/Include/cmsis_gcc.h ****   \brief   Breakpoint
 512:Drivers/CMSIS/Include/cmsis_gcc.h ****   \details Causes the processor to enter Debug state.
 513:Drivers/CMSIS/Include/cmsis_gcc.h ****            Debug tools can use this to investigate system state when the instruction at a particula
 514:Drivers/CMSIS/Include/cmsis_gcc.h ****   \param [in]    value  is ignored by the processor.
 515:Drivers/CMSIS/Include/cmsis_gcc.h ****                  If required, a debugger can use it to store additional information about the break
 516:Drivers/CMSIS/Include/cmsis_gcc.h ****  */
 517:Drivers/CMSIS/Include/cmsis_gcc.h **** #define __BKPT(value)                       __ASM volatile ("bkpt "#value)
 518:Drivers/CMSIS/Include/cmsis_gcc.h **** 
 519:Drivers/CMSIS/Include/cmsis_gcc.h **** 
 520:Drivers/CMSIS/Include/cmsis_gcc.h **** /**
 521:Drivers/CMSIS/Include/cmsis_gcc.h ****   \brief   Reverse bit order of value
 522:Drivers/CMSIS/Include/cmsis_gcc.h ****   \details Reverses the bit order of the given value.
 523:Drivers/CMSIS/Include/cmsis_gcc.h ****   \param [in]    value  Value to reverse
 524:Drivers/CMSIS/Include/cmsis_gcc.h ****   \return               Reversed value
 525:Drivers/CMSIS/Include/cmsis_gcc.h ****  */
 526:Drivers/CMSIS/Include/cmsis_gcc.h **** __attribute__((always_inline)) __STATIC_INLINE uint32_t __RBIT(uint32_t value)
 527:Drivers/CMSIS/Include/cmsis_gcc.h **** {
ARM GAS  /tmp/cc6sio8H.s 			page 31


 528:Drivers/CMSIS/Include/cmsis_gcc.h ****   uint32_t result;
 529:Drivers/CMSIS/Include/cmsis_gcc.h **** 
 530:Drivers/CMSIS/Include/cmsis_gcc.h **** #if       (__CORTEX_M >= 0x03U) || (__CORTEX_SC >= 300U)
 531:Drivers/CMSIS/Include/cmsis_gcc.h ****    __ASM volatile ("rbit %0, %1" : "=r" (result) : "r" (value) );
 394              		.loc 3 531 0
 395              		.syntax unified
 396              	@ 531 "Drivers/CMSIS/Include/cmsis_gcc.h" 1
 397 0004 92FAA2F2 		rbit r2, r2
 398              	@ 0 "" 2
 399              	.LVL38:
 400              		.thumb
 401              		.syntax unified
 402              	.LBE151:
 403              	.LBE150:
 404              		.loc 1 229 0
 405 0008 B2FA82F2 		clz	r2, r2
 406              	.LVL39:
 230:Drivers/STM32F7xx_HAL_Driver/Src/stm32f7xx_ll_gpio.c **** 
 231:Drivers/STM32F7xx_HAL_Driver/Src/stm32f7xx_ll_gpio.c ****   /* Configure the port pins */
 232:Drivers/STM32F7xx_HAL_Driver/Src/stm32f7xx_ll_gpio.c ****   while (((GPIO_InitStruct->Pin) >> pinpos) != 0x00000000U)
 407              		.loc 1 232 0
 408 000c 18E0     		b	.L28
 409              	.LVL40:
 410              	.L30:
 233:Drivers/STM32F7xx_HAL_Driver/Src/stm32f7xx_ll_gpio.c ****   {
 234:Drivers/STM32F7xx_HAL_Driver/Src/stm32f7xx_ll_gpio.c ****     /* Get current io position */
 235:Drivers/STM32F7xx_HAL_Driver/Src/stm32f7xx_ll_gpio.c ****     currentpin = (GPIO_InitStruct->Pin) & (0x00000001U << pinpos);
 236:Drivers/STM32F7xx_HAL_Driver/Src/stm32f7xx_ll_gpio.c **** 
 237:Drivers/STM32F7xx_HAL_Driver/Src/stm32f7xx_ll_gpio.c ****     if (currentpin)
 238:Drivers/STM32F7xx_HAL_Driver/Src/stm32f7xx_ll_gpio.c ****     {
 239:Drivers/STM32F7xx_HAL_Driver/Src/stm32f7xx_ll_gpio.c ****       /* Pin Mode configuration */
 240:Drivers/STM32F7xx_HAL_Driver/Src/stm32f7xx_ll_gpio.c ****       LL_GPIO_SetPinMode(GPIOx, currentpin, GPIO_InitStruct->Mode);
 241:Drivers/STM32F7xx_HAL_Driver/Src/stm32f7xx_ll_gpio.c **** 
 242:Drivers/STM32F7xx_HAL_Driver/Src/stm32f7xx_ll_gpio.c ****       if ((GPIO_InitStruct->Mode == LL_GPIO_MODE_OUTPUT) || (GPIO_InitStruct->Mode == LL_GPIO_MODE_
 243:Drivers/STM32F7xx_HAL_Driver/Src/stm32f7xx_ll_gpio.c ****       {
 244:Drivers/STM32F7xx_HAL_Driver/Src/stm32f7xx_ll_gpio.c ****         /* Check Speed mode parameters */
 245:Drivers/STM32F7xx_HAL_Driver/Src/stm32f7xx_ll_gpio.c ****         assert_param(IS_LL_GPIO_SPEED(GPIO_InitStruct->Speed));
 246:Drivers/STM32F7xx_HAL_Driver/Src/stm32f7xx_ll_gpio.c **** 
 247:Drivers/STM32F7xx_HAL_Driver/Src/stm32f7xx_ll_gpio.c ****         /* Speed mode configuration */
 248:Drivers/STM32F7xx_HAL_Driver/Src/stm32f7xx_ll_gpio.c ****         LL_GPIO_SetPinSpeed(GPIOx, currentpin, GPIO_InitStruct->Speed);
 249:Drivers/STM32F7xx_HAL_Driver/Src/stm32f7xx_ll_gpio.c ****       }
 250:Drivers/STM32F7xx_HAL_Driver/Src/stm32f7xx_ll_gpio.c **** 
 251:Drivers/STM32F7xx_HAL_Driver/Src/stm32f7xx_ll_gpio.c ****       /* Pull-up Pull down resistor configuration*/
 252:Drivers/STM32F7xx_HAL_Driver/Src/stm32f7xx_ll_gpio.c ****       LL_GPIO_SetPinPull(GPIOx, currentpin, GPIO_InitStruct->Pull);
 411              		.loc 1 252 0
 412 000e 0E69     		ldr	r6, [r1, #16]
 413              	.LVL41:
 414              	.LBB152:
 415              	.LBB153:
 416              		.file 4 "Drivers/STM32F7xx_HAL_Driver/Inc/stm32f7xx_ll_gpio.h"
   1:Drivers/STM32F7xx_HAL_Driver/Inc/stm32f7xx_ll_gpio.h **** /**
   2:Drivers/STM32F7xx_HAL_Driver/Inc/stm32f7xx_ll_gpio.h ****   ******************************************************************************
   3:Drivers/STM32F7xx_HAL_Driver/Inc/stm32f7xx_ll_gpio.h ****   * @file    stm32f7xx_ll_gpio.h
   4:Drivers/STM32F7xx_HAL_Driver/Inc/stm32f7xx_ll_gpio.h ****   * @author  MCD Application Team
   5:Drivers/STM32F7xx_HAL_Driver/Inc/stm32f7xx_ll_gpio.h ****   * @brief   Header file of GPIO LL module.
   6:Drivers/STM32F7xx_HAL_Driver/Inc/stm32f7xx_ll_gpio.h ****   ******************************************************************************
   7:Drivers/STM32F7xx_HAL_Driver/Inc/stm32f7xx_ll_gpio.h ****   * @attention
ARM GAS  /tmp/cc6sio8H.s 			page 32


   8:Drivers/STM32F7xx_HAL_Driver/Inc/stm32f7xx_ll_gpio.h ****   *
   9:Drivers/STM32F7xx_HAL_Driver/Inc/stm32f7xx_ll_gpio.h ****   * <h2><center>&copy; COPYRIGHT(c) 2017 STMicroelectronics</center></h2>
  10:Drivers/STM32F7xx_HAL_Driver/Inc/stm32f7xx_ll_gpio.h ****   *
  11:Drivers/STM32F7xx_HAL_Driver/Inc/stm32f7xx_ll_gpio.h ****   * Redistribution and use in source and binary forms, with or without modification,
  12:Drivers/STM32F7xx_HAL_Driver/Inc/stm32f7xx_ll_gpio.h ****   * are permitted provided that the following conditions are met:
  13:Drivers/STM32F7xx_HAL_Driver/Inc/stm32f7xx_ll_gpio.h ****   *   1. Redistributions of source code must retain the above copyright notice,
  14:Drivers/STM32F7xx_HAL_Driver/Inc/stm32f7xx_ll_gpio.h ****   *      this list of conditions and the following disclaimer.
  15:Drivers/STM32F7xx_HAL_Driver/Inc/stm32f7xx_ll_gpio.h ****   *   2. Redistributions in binary form must reproduce the above copyright notice,
  16:Drivers/STM32F7xx_HAL_Driver/Inc/stm32f7xx_ll_gpio.h ****   *      this list of conditions and the following disclaimer in the documentation
  17:Drivers/STM32F7xx_HAL_Driver/Inc/stm32f7xx_ll_gpio.h ****   *      and/or other materials provided with the distribution.
  18:Drivers/STM32F7xx_HAL_Driver/Inc/stm32f7xx_ll_gpio.h ****   *   3. Neither the name of STMicroelectronics nor the names of its contributors
  19:Drivers/STM32F7xx_HAL_Driver/Inc/stm32f7xx_ll_gpio.h ****   *      may be used to endorse or promote products derived from this software
  20:Drivers/STM32F7xx_HAL_Driver/Inc/stm32f7xx_ll_gpio.h ****   *      without specific prior written permission.
  21:Drivers/STM32F7xx_HAL_Driver/Inc/stm32f7xx_ll_gpio.h ****   *
  22:Drivers/STM32F7xx_HAL_Driver/Inc/stm32f7xx_ll_gpio.h ****   * THIS SOFTWARE IS PROVIDED BY THE COPYRIGHT HOLDERS AND CONTRIBUTORS "AS IS"
  23:Drivers/STM32F7xx_HAL_Driver/Inc/stm32f7xx_ll_gpio.h ****   * AND ANY EXPRESS OR IMPLIED WARRANTIES, INCLUDING, BUT NOT LIMITED TO, THE
  24:Drivers/STM32F7xx_HAL_Driver/Inc/stm32f7xx_ll_gpio.h ****   * IMPLIED WARRANTIES OF MERCHANTABILITY AND FITNESS FOR A PARTICULAR PURPOSE ARE
  25:Drivers/STM32F7xx_HAL_Driver/Inc/stm32f7xx_ll_gpio.h ****   * DISCLAIMED. IN NO EVENT SHALL THE COPYRIGHT HOLDER OR CONTRIBUTORS BE LIABLE
  26:Drivers/STM32F7xx_HAL_Driver/Inc/stm32f7xx_ll_gpio.h ****   * FOR ANY DIRECT, INDIRECT, INCIDENTAL, SPECIAL, EXEMPLARY, OR CONSEQUENTIAL
  27:Drivers/STM32F7xx_HAL_Driver/Inc/stm32f7xx_ll_gpio.h ****   * DAMAGES (INCLUDING, BUT NOT LIMITED TO, PROCUREMENT OF SUBSTITUTE GOODS OR
  28:Drivers/STM32F7xx_HAL_Driver/Inc/stm32f7xx_ll_gpio.h ****   * SERVICES; LOSS OF USE, DATA, OR PROFITS; OR BUSINESS INTERRUPTION) HOWEVER
  29:Drivers/STM32F7xx_HAL_Driver/Inc/stm32f7xx_ll_gpio.h ****   * CAUSED AND ON ANY THEORY OF LIABILITY, WHETHER IN CONTRACT, STRICT LIABILITY,
  30:Drivers/STM32F7xx_HAL_Driver/Inc/stm32f7xx_ll_gpio.h ****   * OR TORT (INCLUDING NEGLIGENCE OR OTHERWISE) ARISING IN ANY WAY OUT OF THE USE
  31:Drivers/STM32F7xx_HAL_Driver/Inc/stm32f7xx_ll_gpio.h ****   * OF THIS SOFTWARE, EVEN IF ADVISED OF THE POSSIBILITY OF SUCH DAMAGE.
  32:Drivers/STM32F7xx_HAL_Driver/Inc/stm32f7xx_ll_gpio.h ****   *
  33:Drivers/STM32F7xx_HAL_Driver/Inc/stm32f7xx_ll_gpio.h ****   ******************************************************************************
  34:Drivers/STM32F7xx_HAL_Driver/Inc/stm32f7xx_ll_gpio.h ****   */
  35:Drivers/STM32F7xx_HAL_Driver/Inc/stm32f7xx_ll_gpio.h **** 
  36:Drivers/STM32F7xx_HAL_Driver/Inc/stm32f7xx_ll_gpio.h **** /* Define to prevent recursive inclusion -------------------------------------*/
  37:Drivers/STM32F7xx_HAL_Driver/Inc/stm32f7xx_ll_gpio.h **** #ifndef __STM32F7xx_LL_GPIO_H
  38:Drivers/STM32F7xx_HAL_Driver/Inc/stm32f7xx_ll_gpio.h **** #define __STM32F7xx_LL_GPIO_H
  39:Drivers/STM32F7xx_HAL_Driver/Inc/stm32f7xx_ll_gpio.h **** 
  40:Drivers/STM32F7xx_HAL_Driver/Inc/stm32f7xx_ll_gpio.h **** #ifdef __cplusplus
  41:Drivers/STM32F7xx_HAL_Driver/Inc/stm32f7xx_ll_gpio.h **** extern "C" {
  42:Drivers/STM32F7xx_HAL_Driver/Inc/stm32f7xx_ll_gpio.h **** #endif
  43:Drivers/STM32F7xx_HAL_Driver/Inc/stm32f7xx_ll_gpio.h **** 
  44:Drivers/STM32F7xx_HAL_Driver/Inc/stm32f7xx_ll_gpio.h **** /* Includes ------------------------------------------------------------------*/
  45:Drivers/STM32F7xx_HAL_Driver/Inc/stm32f7xx_ll_gpio.h **** #include "stm32f7xx.h"
  46:Drivers/STM32F7xx_HAL_Driver/Inc/stm32f7xx_ll_gpio.h **** 
  47:Drivers/STM32F7xx_HAL_Driver/Inc/stm32f7xx_ll_gpio.h **** /** @addtogroup STM32F7xx_LL_Driver
  48:Drivers/STM32F7xx_HAL_Driver/Inc/stm32f7xx_ll_gpio.h ****   * @{
  49:Drivers/STM32F7xx_HAL_Driver/Inc/stm32f7xx_ll_gpio.h ****   */
  50:Drivers/STM32F7xx_HAL_Driver/Inc/stm32f7xx_ll_gpio.h **** 
  51:Drivers/STM32F7xx_HAL_Driver/Inc/stm32f7xx_ll_gpio.h **** #if defined (GPIOA) || defined (GPIOB) || defined (GPIOC) || defined (GPIOD) || defined (GPIOE) || 
  52:Drivers/STM32F7xx_HAL_Driver/Inc/stm32f7xx_ll_gpio.h **** 
  53:Drivers/STM32F7xx_HAL_Driver/Inc/stm32f7xx_ll_gpio.h **** /** @defgroup GPIO_LL GPIO
  54:Drivers/STM32F7xx_HAL_Driver/Inc/stm32f7xx_ll_gpio.h ****   * @{
  55:Drivers/STM32F7xx_HAL_Driver/Inc/stm32f7xx_ll_gpio.h ****   */
  56:Drivers/STM32F7xx_HAL_Driver/Inc/stm32f7xx_ll_gpio.h **** 
  57:Drivers/STM32F7xx_HAL_Driver/Inc/stm32f7xx_ll_gpio.h **** /* Private types -------------------------------------------------------------*/
  58:Drivers/STM32F7xx_HAL_Driver/Inc/stm32f7xx_ll_gpio.h **** /* Private variables ---------------------------------------------------------*/
  59:Drivers/STM32F7xx_HAL_Driver/Inc/stm32f7xx_ll_gpio.h **** /* Private constants ---------------------------------------------------------*/
  60:Drivers/STM32F7xx_HAL_Driver/Inc/stm32f7xx_ll_gpio.h **** /* Private macros ------------------------------------------------------------*/
  61:Drivers/STM32F7xx_HAL_Driver/Inc/stm32f7xx_ll_gpio.h **** #if defined(USE_FULL_LL_DRIVER)
  62:Drivers/STM32F7xx_HAL_Driver/Inc/stm32f7xx_ll_gpio.h **** /** @defgroup GPIO_LL_Private_Macros GPIO Private Macros
  63:Drivers/STM32F7xx_HAL_Driver/Inc/stm32f7xx_ll_gpio.h ****   * @{
  64:Drivers/STM32F7xx_HAL_Driver/Inc/stm32f7xx_ll_gpio.h ****   */
ARM GAS  /tmp/cc6sio8H.s 			page 33


  65:Drivers/STM32F7xx_HAL_Driver/Inc/stm32f7xx_ll_gpio.h **** 
  66:Drivers/STM32F7xx_HAL_Driver/Inc/stm32f7xx_ll_gpio.h **** /**
  67:Drivers/STM32F7xx_HAL_Driver/Inc/stm32f7xx_ll_gpio.h ****   * @}
  68:Drivers/STM32F7xx_HAL_Driver/Inc/stm32f7xx_ll_gpio.h ****   */
  69:Drivers/STM32F7xx_HAL_Driver/Inc/stm32f7xx_ll_gpio.h **** #endif /*USE_FULL_LL_DRIVER*/
  70:Drivers/STM32F7xx_HAL_Driver/Inc/stm32f7xx_ll_gpio.h **** 
  71:Drivers/STM32F7xx_HAL_Driver/Inc/stm32f7xx_ll_gpio.h **** /* Exported types ------------------------------------------------------------*/
  72:Drivers/STM32F7xx_HAL_Driver/Inc/stm32f7xx_ll_gpio.h **** #if defined(USE_FULL_LL_DRIVER)
  73:Drivers/STM32F7xx_HAL_Driver/Inc/stm32f7xx_ll_gpio.h **** /** @defgroup GPIO_LL_ES_INIT GPIO Exported Init structures
  74:Drivers/STM32F7xx_HAL_Driver/Inc/stm32f7xx_ll_gpio.h ****   * @{
  75:Drivers/STM32F7xx_HAL_Driver/Inc/stm32f7xx_ll_gpio.h ****   */
  76:Drivers/STM32F7xx_HAL_Driver/Inc/stm32f7xx_ll_gpio.h **** 
  77:Drivers/STM32F7xx_HAL_Driver/Inc/stm32f7xx_ll_gpio.h **** /**
  78:Drivers/STM32F7xx_HAL_Driver/Inc/stm32f7xx_ll_gpio.h ****   * @brief LL GPIO Init Structure definition
  79:Drivers/STM32F7xx_HAL_Driver/Inc/stm32f7xx_ll_gpio.h ****   */
  80:Drivers/STM32F7xx_HAL_Driver/Inc/stm32f7xx_ll_gpio.h **** typedef struct
  81:Drivers/STM32F7xx_HAL_Driver/Inc/stm32f7xx_ll_gpio.h **** {
  82:Drivers/STM32F7xx_HAL_Driver/Inc/stm32f7xx_ll_gpio.h ****   uint32_t Pin;          /*!< Specifies the GPIO pins to be configured.
  83:Drivers/STM32F7xx_HAL_Driver/Inc/stm32f7xx_ll_gpio.h ****                               This parameter can be any value of @ref GPIO_LL_EC_PIN */
  84:Drivers/STM32F7xx_HAL_Driver/Inc/stm32f7xx_ll_gpio.h **** 
  85:Drivers/STM32F7xx_HAL_Driver/Inc/stm32f7xx_ll_gpio.h ****   uint32_t Mode;         /*!< Specifies the operating mode for the selected pins.
  86:Drivers/STM32F7xx_HAL_Driver/Inc/stm32f7xx_ll_gpio.h ****                               This parameter can be a value of @ref GPIO_LL_EC_MODE.
  87:Drivers/STM32F7xx_HAL_Driver/Inc/stm32f7xx_ll_gpio.h **** 
  88:Drivers/STM32F7xx_HAL_Driver/Inc/stm32f7xx_ll_gpio.h ****                               GPIO HW configuration can be modified afterwards using unitary functi
  89:Drivers/STM32F7xx_HAL_Driver/Inc/stm32f7xx_ll_gpio.h **** 
  90:Drivers/STM32F7xx_HAL_Driver/Inc/stm32f7xx_ll_gpio.h ****   uint32_t Speed;        /*!< Specifies the speed for the selected pins.
  91:Drivers/STM32F7xx_HAL_Driver/Inc/stm32f7xx_ll_gpio.h ****                               This parameter can be a value of @ref GPIO_LL_EC_SPEED.
  92:Drivers/STM32F7xx_HAL_Driver/Inc/stm32f7xx_ll_gpio.h **** 
  93:Drivers/STM32F7xx_HAL_Driver/Inc/stm32f7xx_ll_gpio.h ****                               GPIO HW configuration can be modified afterwards using unitary functi
  94:Drivers/STM32F7xx_HAL_Driver/Inc/stm32f7xx_ll_gpio.h **** 
  95:Drivers/STM32F7xx_HAL_Driver/Inc/stm32f7xx_ll_gpio.h ****   uint32_t OutputType;   /*!< Specifies the operating output type for the selected pins.
  96:Drivers/STM32F7xx_HAL_Driver/Inc/stm32f7xx_ll_gpio.h ****                               This parameter can be a value of @ref GPIO_LL_EC_OUTPUT.
  97:Drivers/STM32F7xx_HAL_Driver/Inc/stm32f7xx_ll_gpio.h **** 
  98:Drivers/STM32F7xx_HAL_Driver/Inc/stm32f7xx_ll_gpio.h ****                               GPIO HW configuration can be modified afterwards using unitary functi
  99:Drivers/STM32F7xx_HAL_Driver/Inc/stm32f7xx_ll_gpio.h **** 
 100:Drivers/STM32F7xx_HAL_Driver/Inc/stm32f7xx_ll_gpio.h ****   uint32_t Pull;         /*!< Specifies the operating Pull-up/Pull down for the selected pins.
 101:Drivers/STM32F7xx_HAL_Driver/Inc/stm32f7xx_ll_gpio.h ****                               This parameter can be a value of @ref GPIO_LL_EC_PULL.
 102:Drivers/STM32F7xx_HAL_Driver/Inc/stm32f7xx_ll_gpio.h **** 
 103:Drivers/STM32F7xx_HAL_Driver/Inc/stm32f7xx_ll_gpio.h ****                               GPIO HW configuration can be modified afterwards using unitary functi
 104:Drivers/STM32F7xx_HAL_Driver/Inc/stm32f7xx_ll_gpio.h **** 
 105:Drivers/STM32F7xx_HAL_Driver/Inc/stm32f7xx_ll_gpio.h ****   uint32_t Alternate;    /*!< Specifies the Peripheral to be connected to the selected pins.
 106:Drivers/STM32F7xx_HAL_Driver/Inc/stm32f7xx_ll_gpio.h ****                               This parameter can be a value of @ref GPIO_LL_EC_AF.
 107:Drivers/STM32F7xx_HAL_Driver/Inc/stm32f7xx_ll_gpio.h **** 
 108:Drivers/STM32F7xx_HAL_Driver/Inc/stm32f7xx_ll_gpio.h ****                               GPIO HW configuration can be modified afterwards using unitary functi
 109:Drivers/STM32F7xx_HAL_Driver/Inc/stm32f7xx_ll_gpio.h **** } LL_GPIO_InitTypeDef;
 110:Drivers/STM32F7xx_HAL_Driver/Inc/stm32f7xx_ll_gpio.h **** 
 111:Drivers/STM32F7xx_HAL_Driver/Inc/stm32f7xx_ll_gpio.h **** /**
 112:Drivers/STM32F7xx_HAL_Driver/Inc/stm32f7xx_ll_gpio.h ****   * @}
 113:Drivers/STM32F7xx_HAL_Driver/Inc/stm32f7xx_ll_gpio.h ****   */
 114:Drivers/STM32F7xx_HAL_Driver/Inc/stm32f7xx_ll_gpio.h **** #endif /* USE_FULL_LL_DRIVER */
 115:Drivers/STM32F7xx_HAL_Driver/Inc/stm32f7xx_ll_gpio.h **** 
 116:Drivers/STM32F7xx_HAL_Driver/Inc/stm32f7xx_ll_gpio.h **** /* Exported constants --------------------------------------------------------*/
 117:Drivers/STM32F7xx_HAL_Driver/Inc/stm32f7xx_ll_gpio.h **** /** @defgroup GPIO_LL_Exported_Constants GPIO Exported Constants
 118:Drivers/STM32F7xx_HAL_Driver/Inc/stm32f7xx_ll_gpio.h ****   * @{
 119:Drivers/STM32F7xx_HAL_Driver/Inc/stm32f7xx_ll_gpio.h ****   */
 120:Drivers/STM32F7xx_HAL_Driver/Inc/stm32f7xx_ll_gpio.h **** 
 121:Drivers/STM32F7xx_HAL_Driver/Inc/stm32f7xx_ll_gpio.h **** /** @defgroup GPIO_LL_EC_PIN PIN
ARM GAS  /tmp/cc6sio8H.s 			page 34


 122:Drivers/STM32F7xx_HAL_Driver/Inc/stm32f7xx_ll_gpio.h ****   * @{
 123:Drivers/STM32F7xx_HAL_Driver/Inc/stm32f7xx_ll_gpio.h ****   */
 124:Drivers/STM32F7xx_HAL_Driver/Inc/stm32f7xx_ll_gpio.h **** #define LL_GPIO_PIN_0                      GPIO_BSRR_BS_0 /*!< Select pin 0 */
 125:Drivers/STM32F7xx_HAL_Driver/Inc/stm32f7xx_ll_gpio.h **** #define LL_GPIO_PIN_1                      GPIO_BSRR_BS_1 /*!< Select pin 1 */
 126:Drivers/STM32F7xx_HAL_Driver/Inc/stm32f7xx_ll_gpio.h **** #define LL_GPIO_PIN_2                      GPIO_BSRR_BS_2 /*!< Select pin 2 */
 127:Drivers/STM32F7xx_HAL_Driver/Inc/stm32f7xx_ll_gpio.h **** #define LL_GPIO_PIN_3                      GPIO_BSRR_BS_3 /*!< Select pin 3 */
 128:Drivers/STM32F7xx_HAL_Driver/Inc/stm32f7xx_ll_gpio.h **** #define LL_GPIO_PIN_4                      GPIO_BSRR_BS_4 /*!< Select pin 4 */
 129:Drivers/STM32F7xx_HAL_Driver/Inc/stm32f7xx_ll_gpio.h **** #define LL_GPIO_PIN_5                      GPIO_BSRR_BS_5 /*!< Select pin 5 */
 130:Drivers/STM32F7xx_HAL_Driver/Inc/stm32f7xx_ll_gpio.h **** #define LL_GPIO_PIN_6                      GPIO_BSRR_BS_6 /*!< Select pin 6 */
 131:Drivers/STM32F7xx_HAL_Driver/Inc/stm32f7xx_ll_gpio.h **** #define LL_GPIO_PIN_7                      GPIO_BSRR_BS_7 /*!< Select pin 7 */
 132:Drivers/STM32F7xx_HAL_Driver/Inc/stm32f7xx_ll_gpio.h **** #define LL_GPIO_PIN_8                      GPIO_BSRR_BS_8 /*!< Select pin 8 */
 133:Drivers/STM32F7xx_HAL_Driver/Inc/stm32f7xx_ll_gpio.h **** #define LL_GPIO_PIN_9                      GPIO_BSRR_BS_9 /*!< Select pin 9 */
 134:Drivers/STM32F7xx_HAL_Driver/Inc/stm32f7xx_ll_gpio.h **** #define LL_GPIO_PIN_10                     GPIO_BSRR_BS_10 /*!< Select pin 10 */
 135:Drivers/STM32F7xx_HAL_Driver/Inc/stm32f7xx_ll_gpio.h **** #define LL_GPIO_PIN_11                     GPIO_BSRR_BS_11 /*!< Select pin 11 */
 136:Drivers/STM32F7xx_HAL_Driver/Inc/stm32f7xx_ll_gpio.h **** #define LL_GPIO_PIN_12                     GPIO_BSRR_BS_12 /*!< Select pin 12 */
 137:Drivers/STM32F7xx_HAL_Driver/Inc/stm32f7xx_ll_gpio.h **** #define LL_GPIO_PIN_13                     GPIO_BSRR_BS_13 /*!< Select pin 13 */
 138:Drivers/STM32F7xx_HAL_Driver/Inc/stm32f7xx_ll_gpio.h **** #define LL_GPIO_PIN_14                     GPIO_BSRR_BS_14 /*!< Select pin 14 */
 139:Drivers/STM32F7xx_HAL_Driver/Inc/stm32f7xx_ll_gpio.h **** #define LL_GPIO_PIN_15                     GPIO_BSRR_BS_15 /*!< Select pin 15 */
 140:Drivers/STM32F7xx_HAL_Driver/Inc/stm32f7xx_ll_gpio.h **** #define LL_GPIO_PIN_ALL                    (GPIO_BSRR_BS_0 | GPIO_BSRR_BS_1  | GPIO_BSRR_BS_2  | \
 141:Drivers/STM32F7xx_HAL_Driver/Inc/stm32f7xx_ll_gpio.h ****                                            GPIO_BSRR_BS_3  | GPIO_BSRR_BS_4  | GPIO_BSRR_BS_5  | \
 142:Drivers/STM32F7xx_HAL_Driver/Inc/stm32f7xx_ll_gpio.h ****                                            GPIO_BSRR_BS_6  | GPIO_BSRR_BS_7  | GPIO_BSRR_BS_8  | \
 143:Drivers/STM32F7xx_HAL_Driver/Inc/stm32f7xx_ll_gpio.h ****                                            GPIO_BSRR_BS_9  | GPIO_BSRR_BS_10 | GPIO_BSRR_BS_11 | \
 144:Drivers/STM32F7xx_HAL_Driver/Inc/stm32f7xx_ll_gpio.h ****                                            GPIO_BSRR_BS_12 | GPIO_BSRR_BS_13 | GPIO_BSRR_BS_14 | \
 145:Drivers/STM32F7xx_HAL_Driver/Inc/stm32f7xx_ll_gpio.h ****                                            GPIO_BSRR_BS_15) /*!< Select all pins */
 146:Drivers/STM32F7xx_HAL_Driver/Inc/stm32f7xx_ll_gpio.h **** /**
 147:Drivers/STM32F7xx_HAL_Driver/Inc/stm32f7xx_ll_gpio.h ****   * @}
 148:Drivers/STM32F7xx_HAL_Driver/Inc/stm32f7xx_ll_gpio.h ****   */
 149:Drivers/STM32F7xx_HAL_Driver/Inc/stm32f7xx_ll_gpio.h **** 
 150:Drivers/STM32F7xx_HAL_Driver/Inc/stm32f7xx_ll_gpio.h **** /** @defgroup GPIO_LL_EC_MODE Mode
 151:Drivers/STM32F7xx_HAL_Driver/Inc/stm32f7xx_ll_gpio.h ****   * @{
 152:Drivers/STM32F7xx_HAL_Driver/Inc/stm32f7xx_ll_gpio.h ****   */
 153:Drivers/STM32F7xx_HAL_Driver/Inc/stm32f7xx_ll_gpio.h **** #define LL_GPIO_MODE_INPUT                 (0x00000000U) /*!< Select input mode */
 154:Drivers/STM32F7xx_HAL_Driver/Inc/stm32f7xx_ll_gpio.h **** #define LL_GPIO_MODE_OUTPUT                GPIO_MODER_MODER0_0  /*!< Select output mode */
 155:Drivers/STM32F7xx_HAL_Driver/Inc/stm32f7xx_ll_gpio.h **** #define LL_GPIO_MODE_ALTERNATE             GPIO_MODER_MODER0_1  /*!< Select alternate function mode
 156:Drivers/STM32F7xx_HAL_Driver/Inc/stm32f7xx_ll_gpio.h **** #define LL_GPIO_MODE_ANALOG                GPIO_MODER_MODER0    /*!< Select analog mode */
 157:Drivers/STM32F7xx_HAL_Driver/Inc/stm32f7xx_ll_gpio.h **** /**
 158:Drivers/STM32F7xx_HAL_Driver/Inc/stm32f7xx_ll_gpio.h ****   * @}
 159:Drivers/STM32F7xx_HAL_Driver/Inc/stm32f7xx_ll_gpio.h ****   */
 160:Drivers/STM32F7xx_HAL_Driver/Inc/stm32f7xx_ll_gpio.h **** 
 161:Drivers/STM32F7xx_HAL_Driver/Inc/stm32f7xx_ll_gpio.h **** /** @defgroup GPIO_LL_EC_OUTPUT Output Type
 162:Drivers/STM32F7xx_HAL_Driver/Inc/stm32f7xx_ll_gpio.h ****   * @{
 163:Drivers/STM32F7xx_HAL_Driver/Inc/stm32f7xx_ll_gpio.h ****   */
 164:Drivers/STM32F7xx_HAL_Driver/Inc/stm32f7xx_ll_gpio.h **** #define LL_GPIO_OUTPUT_PUSHPULL            (0x00000000U) /*!< Select push-pull as output type */
 165:Drivers/STM32F7xx_HAL_Driver/Inc/stm32f7xx_ll_gpio.h **** #define LL_GPIO_OUTPUT_OPENDRAIN           GPIO_OTYPER_OT_0 /*!< Select open-drain as output type *
 166:Drivers/STM32F7xx_HAL_Driver/Inc/stm32f7xx_ll_gpio.h **** /**
 167:Drivers/STM32F7xx_HAL_Driver/Inc/stm32f7xx_ll_gpio.h ****   * @}
 168:Drivers/STM32F7xx_HAL_Driver/Inc/stm32f7xx_ll_gpio.h ****   */
 169:Drivers/STM32F7xx_HAL_Driver/Inc/stm32f7xx_ll_gpio.h **** 
 170:Drivers/STM32F7xx_HAL_Driver/Inc/stm32f7xx_ll_gpio.h **** /** @defgroup GPIO_LL_EC_SPEED Output Speed
 171:Drivers/STM32F7xx_HAL_Driver/Inc/stm32f7xx_ll_gpio.h ****   * @{
 172:Drivers/STM32F7xx_HAL_Driver/Inc/stm32f7xx_ll_gpio.h ****   */
 173:Drivers/STM32F7xx_HAL_Driver/Inc/stm32f7xx_ll_gpio.h **** #define LL_GPIO_SPEED_FREQ_LOW             (0x00000000U) /*!< Select I/O low output speed    */
 174:Drivers/STM32F7xx_HAL_Driver/Inc/stm32f7xx_ll_gpio.h **** #define LL_GPIO_SPEED_FREQ_MEDIUM          GPIO_OSPEEDER_OSPEEDR0_0 /*!< Select I/O medium output s
 175:Drivers/STM32F7xx_HAL_Driver/Inc/stm32f7xx_ll_gpio.h **** #define LL_GPIO_SPEED_FREQ_HIGH            GPIO_OSPEEDER_OSPEEDR0_1 /*!< Select I/O fast output spe
 176:Drivers/STM32F7xx_HAL_Driver/Inc/stm32f7xx_ll_gpio.h **** #define LL_GPIO_SPEED_FREQ_VERY_HIGH       GPIO_OSPEEDER_OSPEEDR0   /*!< Select I/O high output spe
 177:Drivers/STM32F7xx_HAL_Driver/Inc/stm32f7xx_ll_gpio.h **** /**
 178:Drivers/STM32F7xx_HAL_Driver/Inc/stm32f7xx_ll_gpio.h ****   * @}
ARM GAS  /tmp/cc6sio8H.s 			page 35


 179:Drivers/STM32F7xx_HAL_Driver/Inc/stm32f7xx_ll_gpio.h ****   */
 180:Drivers/STM32F7xx_HAL_Driver/Inc/stm32f7xx_ll_gpio.h **** 
 181:Drivers/STM32F7xx_HAL_Driver/Inc/stm32f7xx_ll_gpio.h **** /** @defgroup GPIO_LL_EC_PULL Pull Up Pull Down
 182:Drivers/STM32F7xx_HAL_Driver/Inc/stm32f7xx_ll_gpio.h ****   * @{
 183:Drivers/STM32F7xx_HAL_Driver/Inc/stm32f7xx_ll_gpio.h ****   */
 184:Drivers/STM32F7xx_HAL_Driver/Inc/stm32f7xx_ll_gpio.h **** #define LL_GPIO_PULL_NO                    (0x00000000U) /*!< Select I/O no pull */
 185:Drivers/STM32F7xx_HAL_Driver/Inc/stm32f7xx_ll_gpio.h **** #define LL_GPIO_PULL_UP                    GPIO_PUPDR_PUPDR0_0 /*!< Select I/O pull up */
 186:Drivers/STM32F7xx_HAL_Driver/Inc/stm32f7xx_ll_gpio.h **** #define LL_GPIO_PULL_DOWN                  GPIO_PUPDR_PUPDR0_1 /*!< Select I/O pull down */
 187:Drivers/STM32F7xx_HAL_Driver/Inc/stm32f7xx_ll_gpio.h **** /**
 188:Drivers/STM32F7xx_HAL_Driver/Inc/stm32f7xx_ll_gpio.h ****   * @}
 189:Drivers/STM32F7xx_HAL_Driver/Inc/stm32f7xx_ll_gpio.h ****   */
 190:Drivers/STM32F7xx_HAL_Driver/Inc/stm32f7xx_ll_gpio.h **** 
 191:Drivers/STM32F7xx_HAL_Driver/Inc/stm32f7xx_ll_gpio.h **** /** @defgroup GPIO_LL_EC_AF Alternate Function
 192:Drivers/STM32F7xx_HAL_Driver/Inc/stm32f7xx_ll_gpio.h ****   * @{
 193:Drivers/STM32F7xx_HAL_Driver/Inc/stm32f7xx_ll_gpio.h ****   */
 194:Drivers/STM32F7xx_HAL_Driver/Inc/stm32f7xx_ll_gpio.h **** #define LL_GPIO_AF_0                       (0x0000000U) /*!< Select alternate function 0 */
 195:Drivers/STM32F7xx_HAL_Driver/Inc/stm32f7xx_ll_gpio.h **** #define LL_GPIO_AF_1                       (0x0000001U) /*!< Select alternate function 1 */
 196:Drivers/STM32F7xx_HAL_Driver/Inc/stm32f7xx_ll_gpio.h **** #define LL_GPIO_AF_2                       (0x0000002U) /*!< Select alternate function 2 */
 197:Drivers/STM32F7xx_HAL_Driver/Inc/stm32f7xx_ll_gpio.h **** #define LL_GPIO_AF_3                       (0x0000003U) /*!< Select alternate function 3 */
 198:Drivers/STM32F7xx_HAL_Driver/Inc/stm32f7xx_ll_gpio.h **** #define LL_GPIO_AF_4                       (0x0000004U) /*!< Select alternate function 4 */
 199:Drivers/STM32F7xx_HAL_Driver/Inc/stm32f7xx_ll_gpio.h **** #define LL_GPIO_AF_5                       (0x0000005U) /*!< Select alternate function 5 */
 200:Drivers/STM32F7xx_HAL_Driver/Inc/stm32f7xx_ll_gpio.h **** #define LL_GPIO_AF_6                       (0x0000006U) /*!< Select alternate function 6 */
 201:Drivers/STM32F7xx_HAL_Driver/Inc/stm32f7xx_ll_gpio.h **** #define LL_GPIO_AF_7                       (0x0000007U) /*!< Select alternate function 7 */
 202:Drivers/STM32F7xx_HAL_Driver/Inc/stm32f7xx_ll_gpio.h **** #define LL_GPIO_AF_8                       (0x0000008U) /*!< Select alternate function 8 */
 203:Drivers/STM32F7xx_HAL_Driver/Inc/stm32f7xx_ll_gpio.h **** #define LL_GPIO_AF_9                       (0x0000009U) /*!< Select alternate function 9 */
 204:Drivers/STM32F7xx_HAL_Driver/Inc/stm32f7xx_ll_gpio.h **** #define LL_GPIO_AF_10                      (0x000000AU) /*!< Select alternate function 10 */
 205:Drivers/STM32F7xx_HAL_Driver/Inc/stm32f7xx_ll_gpio.h **** #define LL_GPIO_AF_11                      (0x000000BU) /*!< Select alternate function 11 */
 206:Drivers/STM32F7xx_HAL_Driver/Inc/stm32f7xx_ll_gpio.h **** #define LL_GPIO_AF_12                      (0x000000CU) /*!< Select alternate function 12 */
 207:Drivers/STM32F7xx_HAL_Driver/Inc/stm32f7xx_ll_gpio.h **** #define LL_GPIO_AF_13                      (0x000000DU) /*!< Select alternate function 13 */
 208:Drivers/STM32F7xx_HAL_Driver/Inc/stm32f7xx_ll_gpio.h **** #define LL_GPIO_AF_14                      (0x000000EU) /*!< Select alternate function 14 */
 209:Drivers/STM32F7xx_HAL_Driver/Inc/stm32f7xx_ll_gpio.h **** #define LL_GPIO_AF_15                      (0x000000FU) /*!< Select alternate function 15 */
 210:Drivers/STM32F7xx_HAL_Driver/Inc/stm32f7xx_ll_gpio.h **** /**
 211:Drivers/STM32F7xx_HAL_Driver/Inc/stm32f7xx_ll_gpio.h ****   * @}
 212:Drivers/STM32F7xx_HAL_Driver/Inc/stm32f7xx_ll_gpio.h ****   */
 213:Drivers/STM32F7xx_HAL_Driver/Inc/stm32f7xx_ll_gpio.h **** 
 214:Drivers/STM32F7xx_HAL_Driver/Inc/stm32f7xx_ll_gpio.h **** /**
 215:Drivers/STM32F7xx_HAL_Driver/Inc/stm32f7xx_ll_gpio.h ****   * @}
 216:Drivers/STM32F7xx_HAL_Driver/Inc/stm32f7xx_ll_gpio.h ****   */
 217:Drivers/STM32F7xx_HAL_Driver/Inc/stm32f7xx_ll_gpio.h **** 
 218:Drivers/STM32F7xx_HAL_Driver/Inc/stm32f7xx_ll_gpio.h **** /* Exported macro ------------------------------------------------------------*/
 219:Drivers/STM32F7xx_HAL_Driver/Inc/stm32f7xx_ll_gpio.h **** /** @defgroup GPIO_LL_Exported_Macros GPIO Exported Macros
 220:Drivers/STM32F7xx_HAL_Driver/Inc/stm32f7xx_ll_gpio.h ****   * @{
 221:Drivers/STM32F7xx_HAL_Driver/Inc/stm32f7xx_ll_gpio.h ****   */
 222:Drivers/STM32F7xx_HAL_Driver/Inc/stm32f7xx_ll_gpio.h **** 
 223:Drivers/STM32F7xx_HAL_Driver/Inc/stm32f7xx_ll_gpio.h **** /** @defgroup GPIO_LL_EM_WRITE_READ Common Write and read registers Macros
 224:Drivers/STM32F7xx_HAL_Driver/Inc/stm32f7xx_ll_gpio.h ****   * @{
 225:Drivers/STM32F7xx_HAL_Driver/Inc/stm32f7xx_ll_gpio.h ****   */
 226:Drivers/STM32F7xx_HAL_Driver/Inc/stm32f7xx_ll_gpio.h **** 
 227:Drivers/STM32F7xx_HAL_Driver/Inc/stm32f7xx_ll_gpio.h **** /**
 228:Drivers/STM32F7xx_HAL_Driver/Inc/stm32f7xx_ll_gpio.h ****   * @brief  Write a value in GPIO register
 229:Drivers/STM32F7xx_HAL_Driver/Inc/stm32f7xx_ll_gpio.h ****   * @param  __INSTANCE__ GPIO Instance
 230:Drivers/STM32F7xx_HAL_Driver/Inc/stm32f7xx_ll_gpio.h ****   * @param  __REG__ Register to be written
 231:Drivers/STM32F7xx_HAL_Driver/Inc/stm32f7xx_ll_gpio.h ****   * @param  __VALUE__ Value to be written in the register
 232:Drivers/STM32F7xx_HAL_Driver/Inc/stm32f7xx_ll_gpio.h ****   * @retval None
 233:Drivers/STM32F7xx_HAL_Driver/Inc/stm32f7xx_ll_gpio.h ****   */
 234:Drivers/STM32F7xx_HAL_Driver/Inc/stm32f7xx_ll_gpio.h **** #define LL_GPIO_WriteReg(__INSTANCE__, __REG__, __VALUE__) WRITE_REG(__INSTANCE__->__REG__, (__VALU
 235:Drivers/STM32F7xx_HAL_Driver/Inc/stm32f7xx_ll_gpio.h **** 
ARM GAS  /tmp/cc6sio8H.s 			page 36


 236:Drivers/STM32F7xx_HAL_Driver/Inc/stm32f7xx_ll_gpio.h **** /**
 237:Drivers/STM32F7xx_HAL_Driver/Inc/stm32f7xx_ll_gpio.h ****   * @brief  Read a value in GPIO register
 238:Drivers/STM32F7xx_HAL_Driver/Inc/stm32f7xx_ll_gpio.h ****   * @param  __INSTANCE__ GPIO Instance
 239:Drivers/STM32F7xx_HAL_Driver/Inc/stm32f7xx_ll_gpio.h ****   * @param  __REG__ Register to be read
 240:Drivers/STM32F7xx_HAL_Driver/Inc/stm32f7xx_ll_gpio.h ****   * @retval Register value
 241:Drivers/STM32F7xx_HAL_Driver/Inc/stm32f7xx_ll_gpio.h ****   */
 242:Drivers/STM32F7xx_HAL_Driver/Inc/stm32f7xx_ll_gpio.h **** #define LL_GPIO_ReadReg(__INSTANCE__, __REG__) READ_REG(__INSTANCE__->__REG__)
 243:Drivers/STM32F7xx_HAL_Driver/Inc/stm32f7xx_ll_gpio.h **** /**
 244:Drivers/STM32F7xx_HAL_Driver/Inc/stm32f7xx_ll_gpio.h ****   * @}
 245:Drivers/STM32F7xx_HAL_Driver/Inc/stm32f7xx_ll_gpio.h ****   */
 246:Drivers/STM32F7xx_HAL_Driver/Inc/stm32f7xx_ll_gpio.h **** 
 247:Drivers/STM32F7xx_HAL_Driver/Inc/stm32f7xx_ll_gpio.h **** /**
 248:Drivers/STM32F7xx_HAL_Driver/Inc/stm32f7xx_ll_gpio.h ****   * @}
 249:Drivers/STM32F7xx_HAL_Driver/Inc/stm32f7xx_ll_gpio.h ****   */
 250:Drivers/STM32F7xx_HAL_Driver/Inc/stm32f7xx_ll_gpio.h **** 
 251:Drivers/STM32F7xx_HAL_Driver/Inc/stm32f7xx_ll_gpio.h **** /* Exported functions --------------------------------------------------------*/
 252:Drivers/STM32F7xx_HAL_Driver/Inc/stm32f7xx_ll_gpio.h **** /** @defgroup GPIO_LL_Exported_Functions GPIO Exported Functions
 253:Drivers/STM32F7xx_HAL_Driver/Inc/stm32f7xx_ll_gpio.h ****   * @{
 254:Drivers/STM32F7xx_HAL_Driver/Inc/stm32f7xx_ll_gpio.h ****   */
 255:Drivers/STM32F7xx_HAL_Driver/Inc/stm32f7xx_ll_gpio.h **** 
 256:Drivers/STM32F7xx_HAL_Driver/Inc/stm32f7xx_ll_gpio.h **** /** @defgroup GPIO_LL_EF_Port_Configuration Port Configuration
 257:Drivers/STM32F7xx_HAL_Driver/Inc/stm32f7xx_ll_gpio.h ****   * @{
 258:Drivers/STM32F7xx_HAL_Driver/Inc/stm32f7xx_ll_gpio.h ****   */
 259:Drivers/STM32F7xx_HAL_Driver/Inc/stm32f7xx_ll_gpio.h **** 
 260:Drivers/STM32F7xx_HAL_Driver/Inc/stm32f7xx_ll_gpio.h **** /**
 261:Drivers/STM32F7xx_HAL_Driver/Inc/stm32f7xx_ll_gpio.h ****   * @brief  Configure gpio mode for a dedicated pin on dedicated port.
 262:Drivers/STM32F7xx_HAL_Driver/Inc/stm32f7xx_ll_gpio.h ****   * @note   I/O mode can be Input mode, General purpose output, Alternate function mode or Analog.
 263:Drivers/STM32F7xx_HAL_Driver/Inc/stm32f7xx_ll_gpio.h ****   * @note   Warning: only one pin can be passed as parameter.
 264:Drivers/STM32F7xx_HAL_Driver/Inc/stm32f7xx_ll_gpio.h ****   * @rmtoll MODER        MODEy         LL_GPIO_SetPinMode
 265:Drivers/STM32F7xx_HAL_Driver/Inc/stm32f7xx_ll_gpio.h ****   * @param  GPIOx GPIO Port
 266:Drivers/STM32F7xx_HAL_Driver/Inc/stm32f7xx_ll_gpio.h ****   * @param  Pin This parameter can be one of the following values:
 267:Drivers/STM32F7xx_HAL_Driver/Inc/stm32f7xx_ll_gpio.h ****   *         @arg @ref LL_GPIO_PIN_0
 268:Drivers/STM32F7xx_HAL_Driver/Inc/stm32f7xx_ll_gpio.h ****   *         @arg @ref LL_GPIO_PIN_1
 269:Drivers/STM32F7xx_HAL_Driver/Inc/stm32f7xx_ll_gpio.h ****   *         @arg @ref LL_GPIO_PIN_2
 270:Drivers/STM32F7xx_HAL_Driver/Inc/stm32f7xx_ll_gpio.h ****   *         @arg @ref LL_GPIO_PIN_3
 271:Drivers/STM32F7xx_HAL_Driver/Inc/stm32f7xx_ll_gpio.h ****   *         @arg @ref LL_GPIO_PIN_4
 272:Drivers/STM32F7xx_HAL_Driver/Inc/stm32f7xx_ll_gpio.h ****   *         @arg @ref LL_GPIO_PIN_5
 273:Drivers/STM32F7xx_HAL_Driver/Inc/stm32f7xx_ll_gpio.h ****   *         @arg @ref LL_GPIO_PIN_6
 274:Drivers/STM32F7xx_HAL_Driver/Inc/stm32f7xx_ll_gpio.h ****   *         @arg @ref LL_GPIO_PIN_7
 275:Drivers/STM32F7xx_HAL_Driver/Inc/stm32f7xx_ll_gpio.h ****   *         @arg @ref LL_GPIO_PIN_8
 276:Drivers/STM32F7xx_HAL_Driver/Inc/stm32f7xx_ll_gpio.h ****   *         @arg @ref LL_GPIO_PIN_9
 277:Drivers/STM32F7xx_HAL_Driver/Inc/stm32f7xx_ll_gpio.h ****   *         @arg @ref LL_GPIO_PIN_10
 278:Drivers/STM32F7xx_HAL_Driver/Inc/stm32f7xx_ll_gpio.h ****   *         @arg @ref LL_GPIO_PIN_11
 279:Drivers/STM32F7xx_HAL_Driver/Inc/stm32f7xx_ll_gpio.h ****   *         @arg @ref LL_GPIO_PIN_12
 280:Drivers/STM32F7xx_HAL_Driver/Inc/stm32f7xx_ll_gpio.h ****   *         @arg @ref LL_GPIO_PIN_13
 281:Drivers/STM32F7xx_HAL_Driver/Inc/stm32f7xx_ll_gpio.h ****   *         @arg @ref LL_GPIO_PIN_14
 282:Drivers/STM32F7xx_HAL_Driver/Inc/stm32f7xx_ll_gpio.h ****   *         @arg @ref LL_GPIO_PIN_15
 283:Drivers/STM32F7xx_HAL_Driver/Inc/stm32f7xx_ll_gpio.h ****   * @param  Mode This parameter can be one of the following values:
 284:Drivers/STM32F7xx_HAL_Driver/Inc/stm32f7xx_ll_gpio.h ****   *         @arg @ref LL_GPIO_MODE_INPUT
 285:Drivers/STM32F7xx_HAL_Driver/Inc/stm32f7xx_ll_gpio.h ****   *         @arg @ref LL_GPIO_MODE_OUTPUT
 286:Drivers/STM32F7xx_HAL_Driver/Inc/stm32f7xx_ll_gpio.h ****   *         @arg @ref LL_GPIO_MODE_ALTERNATE
 287:Drivers/STM32F7xx_HAL_Driver/Inc/stm32f7xx_ll_gpio.h ****   *         @arg @ref LL_GPIO_MODE_ANALOG
 288:Drivers/STM32F7xx_HAL_Driver/Inc/stm32f7xx_ll_gpio.h ****   * @retval None
 289:Drivers/STM32F7xx_HAL_Driver/Inc/stm32f7xx_ll_gpio.h ****   */
 290:Drivers/STM32F7xx_HAL_Driver/Inc/stm32f7xx_ll_gpio.h **** __STATIC_INLINE void LL_GPIO_SetPinMode(GPIO_TypeDef *GPIOx, uint32_t Pin, uint32_t Mode)
 291:Drivers/STM32F7xx_HAL_Driver/Inc/stm32f7xx_ll_gpio.h **** {
 292:Drivers/STM32F7xx_HAL_Driver/Inc/stm32f7xx_ll_gpio.h ****   MODIFY_REG(GPIOx->MODER, (GPIO_MODER_MODER0 << (POSITION_VAL(Pin) * 2U)), (Mode << (POSITION_VAL(
ARM GAS  /tmp/cc6sio8H.s 			page 37


 293:Drivers/STM32F7xx_HAL_Driver/Inc/stm32f7xx_ll_gpio.h **** }
 294:Drivers/STM32F7xx_HAL_Driver/Inc/stm32f7xx_ll_gpio.h **** 
 295:Drivers/STM32F7xx_HAL_Driver/Inc/stm32f7xx_ll_gpio.h **** /**
 296:Drivers/STM32F7xx_HAL_Driver/Inc/stm32f7xx_ll_gpio.h ****   * @brief  Return gpio mode for a dedicated pin on dedicated port.
 297:Drivers/STM32F7xx_HAL_Driver/Inc/stm32f7xx_ll_gpio.h ****   * @note   I/O mode can be Input mode, General purpose output, Alternate function mode or Analog.
 298:Drivers/STM32F7xx_HAL_Driver/Inc/stm32f7xx_ll_gpio.h ****   * @note   Warning: only one pin can be passed as parameter.
 299:Drivers/STM32F7xx_HAL_Driver/Inc/stm32f7xx_ll_gpio.h ****   * @rmtoll MODER        MODEy         LL_GPIO_GetPinMode
 300:Drivers/STM32F7xx_HAL_Driver/Inc/stm32f7xx_ll_gpio.h ****   * @param  GPIOx GPIO Port
 301:Drivers/STM32F7xx_HAL_Driver/Inc/stm32f7xx_ll_gpio.h ****   * @param  Pin This parameter can be one of the following values:
 302:Drivers/STM32F7xx_HAL_Driver/Inc/stm32f7xx_ll_gpio.h ****   *         @arg @ref LL_GPIO_PIN_0
 303:Drivers/STM32F7xx_HAL_Driver/Inc/stm32f7xx_ll_gpio.h ****   *         @arg @ref LL_GPIO_PIN_1
 304:Drivers/STM32F7xx_HAL_Driver/Inc/stm32f7xx_ll_gpio.h ****   *         @arg @ref LL_GPIO_PIN_2
 305:Drivers/STM32F7xx_HAL_Driver/Inc/stm32f7xx_ll_gpio.h ****   *         @arg @ref LL_GPIO_PIN_3
 306:Drivers/STM32F7xx_HAL_Driver/Inc/stm32f7xx_ll_gpio.h ****   *         @arg @ref LL_GPIO_PIN_4
 307:Drivers/STM32F7xx_HAL_Driver/Inc/stm32f7xx_ll_gpio.h ****   *         @arg @ref LL_GPIO_PIN_5
 308:Drivers/STM32F7xx_HAL_Driver/Inc/stm32f7xx_ll_gpio.h ****   *         @arg @ref LL_GPIO_PIN_6
 309:Drivers/STM32F7xx_HAL_Driver/Inc/stm32f7xx_ll_gpio.h ****   *         @arg @ref LL_GPIO_PIN_7
 310:Drivers/STM32F7xx_HAL_Driver/Inc/stm32f7xx_ll_gpio.h ****   *         @arg @ref LL_GPIO_PIN_8
 311:Drivers/STM32F7xx_HAL_Driver/Inc/stm32f7xx_ll_gpio.h ****   *         @arg @ref LL_GPIO_PIN_9
 312:Drivers/STM32F7xx_HAL_Driver/Inc/stm32f7xx_ll_gpio.h ****   *         @arg @ref LL_GPIO_PIN_10
 313:Drivers/STM32F7xx_HAL_Driver/Inc/stm32f7xx_ll_gpio.h ****   *         @arg @ref LL_GPIO_PIN_11
 314:Drivers/STM32F7xx_HAL_Driver/Inc/stm32f7xx_ll_gpio.h ****   *         @arg @ref LL_GPIO_PIN_12
 315:Drivers/STM32F7xx_HAL_Driver/Inc/stm32f7xx_ll_gpio.h ****   *         @arg @ref LL_GPIO_PIN_13
 316:Drivers/STM32F7xx_HAL_Driver/Inc/stm32f7xx_ll_gpio.h ****   *         @arg @ref LL_GPIO_PIN_14
 317:Drivers/STM32F7xx_HAL_Driver/Inc/stm32f7xx_ll_gpio.h ****   *         @arg @ref LL_GPIO_PIN_15
 318:Drivers/STM32F7xx_HAL_Driver/Inc/stm32f7xx_ll_gpio.h ****   * @retval Returned value can be one of the following values:
 319:Drivers/STM32F7xx_HAL_Driver/Inc/stm32f7xx_ll_gpio.h ****   *         @arg @ref LL_GPIO_MODE_INPUT
 320:Drivers/STM32F7xx_HAL_Driver/Inc/stm32f7xx_ll_gpio.h ****   *         @arg @ref LL_GPIO_MODE_OUTPUT
 321:Drivers/STM32F7xx_HAL_Driver/Inc/stm32f7xx_ll_gpio.h ****   *         @arg @ref LL_GPIO_MODE_ALTERNATE
 322:Drivers/STM32F7xx_HAL_Driver/Inc/stm32f7xx_ll_gpio.h ****   *         @arg @ref LL_GPIO_MODE_ANALOG
 323:Drivers/STM32F7xx_HAL_Driver/Inc/stm32f7xx_ll_gpio.h ****   */
 324:Drivers/STM32F7xx_HAL_Driver/Inc/stm32f7xx_ll_gpio.h **** __STATIC_INLINE uint32_t LL_GPIO_GetPinMode(GPIO_TypeDef *GPIOx, uint32_t Pin)
 325:Drivers/STM32F7xx_HAL_Driver/Inc/stm32f7xx_ll_gpio.h **** {
 326:Drivers/STM32F7xx_HAL_Driver/Inc/stm32f7xx_ll_gpio.h ****   return (uint32_t)(READ_BIT(GPIOx->MODER,
 327:Drivers/STM32F7xx_HAL_Driver/Inc/stm32f7xx_ll_gpio.h ****                              (GPIO_MODER_MODER0 << (POSITION_VAL(Pin) * 2U))) >> (POSITION_VAL(Pin)
 328:Drivers/STM32F7xx_HAL_Driver/Inc/stm32f7xx_ll_gpio.h **** }
 329:Drivers/STM32F7xx_HAL_Driver/Inc/stm32f7xx_ll_gpio.h **** 
 330:Drivers/STM32F7xx_HAL_Driver/Inc/stm32f7xx_ll_gpio.h **** /**
 331:Drivers/STM32F7xx_HAL_Driver/Inc/stm32f7xx_ll_gpio.h ****   * @brief  Configure gpio output type for several pins on dedicated port.
 332:Drivers/STM32F7xx_HAL_Driver/Inc/stm32f7xx_ll_gpio.h ****   * @note   Output type as to be set when gpio pin is in output or
 333:Drivers/STM32F7xx_HAL_Driver/Inc/stm32f7xx_ll_gpio.h ****   *         alternate modes. Possible type are Push-pull or Open-drain.
 334:Drivers/STM32F7xx_HAL_Driver/Inc/stm32f7xx_ll_gpio.h ****   * @rmtoll OTYPER       OTy           LL_GPIO_SetPinOutputType
 335:Drivers/STM32F7xx_HAL_Driver/Inc/stm32f7xx_ll_gpio.h ****   * @param  GPIOx GPIO Port
 336:Drivers/STM32F7xx_HAL_Driver/Inc/stm32f7xx_ll_gpio.h ****   * @param  PinMask This parameter can be a combination of the following values:
 337:Drivers/STM32F7xx_HAL_Driver/Inc/stm32f7xx_ll_gpio.h ****   *         @arg @ref LL_GPIO_PIN_0
 338:Drivers/STM32F7xx_HAL_Driver/Inc/stm32f7xx_ll_gpio.h ****   *         @arg @ref LL_GPIO_PIN_1
 339:Drivers/STM32F7xx_HAL_Driver/Inc/stm32f7xx_ll_gpio.h ****   *         @arg @ref LL_GPIO_PIN_2
 340:Drivers/STM32F7xx_HAL_Driver/Inc/stm32f7xx_ll_gpio.h ****   *         @arg @ref LL_GPIO_PIN_3
 341:Drivers/STM32F7xx_HAL_Driver/Inc/stm32f7xx_ll_gpio.h ****   *         @arg @ref LL_GPIO_PIN_4
 342:Drivers/STM32F7xx_HAL_Driver/Inc/stm32f7xx_ll_gpio.h ****   *         @arg @ref LL_GPIO_PIN_5
 343:Drivers/STM32F7xx_HAL_Driver/Inc/stm32f7xx_ll_gpio.h ****   *         @arg @ref LL_GPIO_PIN_6
 344:Drivers/STM32F7xx_HAL_Driver/Inc/stm32f7xx_ll_gpio.h ****   *         @arg @ref LL_GPIO_PIN_7
 345:Drivers/STM32F7xx_HAL_Driver/Inc/stm32f7xx_ll_gpio.h ****   *         @arg @ref LL_GPIO_PIN_8
 346:Drivers/STM32F7xx_HAL_Driver/Inc/stm32f7xx_ll_gpio.h ****   *         @arg @ref LL_GPIO_PIN_9
 347:Drivers/STM32F7xx_HAL_Driver/Inc/stm32f7xx_ll_gpio.h ****   *         @arg @ref LL_GPIO_PIN_10
 348:Drivers/STM32F7xx_HAL_Driver/Inc/stm32f7xx_ll_gpio.h ****   *         @arg @ref LL_GPIO_PIN_11
 349:Drivers/STM32F7xx_HAL_Driver/Inc/stm32f7xx_ll_gpio.h ****   *         @arg @ref LL_GPIO_PIN_12
ARM GAS  /tmp/cc6sio8H.s 			page 38


 350:Drivers/STM32F7xx_HAL_Driver/Inc/stm32f7xx_ll_gpio.h ****   *         @arg @ref LL_GPIO_PIN_13
 351:Drivers/STM32F7xx_HAL_Driver/Inc/stm32f7xx_ll_gpio.h ****   *         @arg @ref LL_GPIO_PIN_14
 352:Drivers/STM32F7xx_HAL_Driver/Inc/stm32f7xx_ll_gpio.h ****   *         @arg @ref LL_GPIO_PIN_15
 353:Drivers/STM32F7xx_HAL_Driver/Inc/stm32f7xx_ll_gpio.h ****   *         @arg @ref LL_GPIO_PIN_ALL
 354:Drivers/STM32F7xx_HAL_Driver/Inc/stm32f7xx_ll_gpio.h ****   * @param  OutputType This parameter can be one of the following values:
 355:Drivers/STM32F7xx_HAL_Driver/Inc/stm32f7xx_ll_gpio.h ****   *         @arg @ref LL_GPIO_OUTPUT_PUSHPULL
 356:Drivers/STM32F7xx_HAL_Driver/Inc/stm32f7xx_ll_gpio.h ****   *         @arg @ref LL_GPIO_OUTPUT_OPENDRAIN
 357:Drivers/STM32F7xx_HAL_Driver/Inc/stm32f7xx_ll_gpio.h ****   * @retval None
 358:Drivers/STM32F7xx_HAL_Driver/Inc/stm32f7xx_ll_gpio.h ****   */
 359:Drivers/STM32F7xx_HAL_Driver/Inc/stm32f7xx_ll_gpio.h **** __STATIC_INLINE void LL_GPIO_SetPinOutputType(GPIO_TypeDef *GPIOx, uint32_t PinMask, uint32_t Outpu
 360:Drivers/STM32F7xx_HAL_Driver/Inc/stm32f7xx_ll_gpio.h **** {
 361:Drivers/STM32F7xx_HAL_Driver/Inc/stm32f7xx_ll_gpio.h ****   MODIFY_REG(GPIOx->OTYPER, PinMask, (PinMask * OutputType));
 362:Drivers/STM32F7xx_HAL_Driver/Inc/stm32f7xx_ll_gpio.h **** }
 363:Drivers/STM32F7xx_HAL_Driver/Inc/stm32f7xx_ll_gpio.h **** 
 364:Drivers/STM32F7xx_HAL_Driver/Inc/stm32f7xx_ll_gpio.h **** /**
 365:Drivers/STM32F7xx_HAL_Driver/Inc/stm32f7xx_ll_gpio.h ****   * @brief  Return gpio output type for several pins on dedicated port.
 366:Drivers/STM32F7xx_HAL_Driver/Inc/stm32f7xx_ll_gpio.h ****   * @note   Output type as to be set when gpio pin is in output or
 367:Drivers/STM32F7xx_HAL_Driver/Inc/stm32f7xx_ll_gpio.h ****   *         alternate modes. Possible type are Push-pull or Open-drain.
 368:Drivers/STM32F7xx_HAL_Driver/Inc/stm32f7xx_ll_gpio.h ****   * @note   Warning: only one pin can be passed as parameter.
 369:Drivers/STM32F7xx_HAL_Driver/Inc/stm32f7xx_ll_gpio.h ****   * @rmtoll OTYPER       OTy           LL_GPIO_GetPinOutputType
 370:Drivers/STM32F7xx_HAL_Driver/Inc/stm32f7xx_ll_gpio.h ****   * @param  GPIOx GPIO Port
 371:Drivers/STM32F7xx_HAL_Driver/Inc/stm32f7xx_ll_gpio.h ****   * @param  Pin This parameter can be one of the following values:
 372:Drivers/STM32F7xx_HAL_Driver/Inc/stm32f7xx_ll_gpio.h ****   *         @arg @ref LL_GPIO_PIN_0
 373:Drivers/STM32F7xx_HAL_Driver/Inc/stm32f7xx_ll_gpio.h ****   *         @arg @ref LL_GPIO_PIN_1
 374:Drivers/STM32F7xx_HAL_Driver/Inc/stm32f7xx_ll_gpio.h ****   *         @arg @ref LL_GPIO_PIN_2
 375:Drivers/STM32F7xx_HAL_Driver/Inc/stm32f7xx_ll_gpio.h ****   *         @arg @ref LL_GPIO_PIN_3
 376:Drivers/STM32F7xx_HAL_Driver/Inc/stm32f7xx_ll_gpio.h ****   *         @arg @ref LL_GPIO_PIN_4
 377:Drivers/STM32F7xx_HAL_Driver/Inc/stm32f7xx_ll_gpio.h ****   *         @arg @ref LL_GPIO_PIN_5
 378:Drivers/STM32F7xx_HAL_Driver/Inc/stm32f7xx_ll_gpio.h ****   *         @arg @ref LL_GPIO_PIN_6
 379:Drivers/STM32F7xx_HAL_Driver/Inc/stm32f7xx_ll_gpio.h ****   *         @arg @ref LL_GPIO_PIN_7
 380:Drivers/STM32F7xx_HAL_Driver/Inc/stm32f7xx_ll_gpio.h ****   *         @arg @ref LL_GPIO_PIN_8
 381:Drivers/STM32F7xx_HAL_Driver/Inc/stm32f7xx_ll_gpio.h ****   *         @arg @ref LL_GPIO_PIN_9
 382:Drivers/STM32F7xx_HAL_Driver/Inc/stm32f7xx_ll_gpio.h ****   *         @arg @ref LL_GPIO_PIN_10
 383:Drivers/STM32F7xx_HAL_Driver/Inc/stm32f7xx_ll_gpio.h ****   *         @arg @ref LL_GPIO_PIN_11
 384:Drivers/STM32F7xx_HAL_Driver/Inc/stm32f7xx_ll_gpio.h ****   *         @arg @ref LL_GPIO_PIN_12
 385:Drivers/STM32F7xx_HAL_Driver/Inc/stm32f7xx_ll_gpio.h ****   *         @arg @ref LL_GPIO_PIN_13
 386:Drivers/STM32F7xx_HAL_Driver/Inc/stm32f7xx_ll_gpio.h ****   *         @arg @ref LL_GPIO_PIN_14
 387:Drivers/STM32F7xx_HAL_Driver/Inc/stm32f7xx_ll_gpio.h ****   *         @arg @ref LL_GPIO_PIN_15
 388:Drivers/STM32F7xx_HAL_Driver/Inc/stm32f7xx_ll_gpio.h ****   *         @arg @ref LL_GPIO_PIN_ALL
 389:Drivers/STM32F7xx_HAL_Driver/Inc/stm32f7xx_ll_gpio.h ****   * @retval Returned value can be one of the following values:
 390:Drivers/STM32F7xx_HAL_Driver/Inc/stm32f7xx_ll_gpio.h ****   *         @arg @ref LL_GPIO_OUTPUT_PUSHPULL
 391:Drivers/STM32F7xx_HAL_Driver/Inc/stm32f7xx_ll_gpio.h ****   *         @arg @ref LL_GPIO_OUTPUT_OPENDRAIN
 392:Drivers/STM32F7xx_HAL_Driver/Inc/stm32f7xx_ll_gpio.h ****   */
 393:Drivers/STM32F7xx_HAL_Driver/Inc/stm32f7xx_ll_gpio.h **** __STATIC_INLINE uint32_t LL_GPIO_GetPinOutputType(GPIO_TypeDef *GPIOx, uint32_t Pin)
 394:Drivers/STM32F7xx_HAL_Driver/Inc/stm32f7xx_ll_gpio.h **** {
 395:Drivers/STM32F7xx_HAL_Driver/Inc/stm32f7xx_ll_gpio.h ****   return (uint32_t)(READ_BIT(GPIOx->OTYPER, Pin) >> POSITION_VAL(Pin));
 396:Drivers/STM32F7xx_HAL_Driver/Inc/stm32f7xx_ll_gpio.h **** }
 397:Drivers/STM32F7xx_HAL_Driver/Inc/stm32f7xx_ll_gpio.h **** 
 398:Drivers/STM32F7xx_HAL_Driver/Inc/stm32f7xx_ll_gpio.h **** /**
 399:Drivers/STM32F7xx_HAL_Driver/Inc/stm32f7xx_ll_gpio.h ****   * @brief  Configure gpio speed for a dedicated pin on dedicated port.
 400:Drivers/STM32F7xx_HAL_Driver/Inc/stm32f7xx_ll_gpio.h ****   * @note   I/O speed can be Low, Medium, Fast or High speed.
 401:Drivers/STM32F7xx_HAL_Driver/Inc/stm32f7xx_ll_gpio.h ****   * @note   Warning: only one pin can be passed as parameter.
 402:Drivers/STM32F7xx_HAL_Driver/Inc/stm32f7xx_ll_gpio.h ****   * @note   Refer to datasheet for frequency specifications and the power
 403:Drivers/STM32F7xx_HAL_Driver/Inc/stm32f7xx_ll_gpio.h ****   *         supply and load conditions for each speed.
 404:Drivers/STM32F7xx_HAL_Driver/Inc/stm32f7xx_ll_gpio.h ****   * @rmtoll OSPEEDR      OSPEEDy       LL_GPIO_SetPinSpeed
 405:Drivers/STM32F7xx_HAL_Driver/Inc/stm32f7xx_ll_gpio.h ****   * @param  GPIOx GPIO Port
 406:Drivers/STM32F7xx_HAL_Driver/Inc/stm32f7xx_ll_gpio.h ****   * @param  Pin This parameter can be one of the following values:
ARM GAS  /tmp/cc6sio8H.s 			page 39


 407:Drivers/STM32F7xx_HAL_Driver/Inc/stm32f7xx_ll_gpio.h ****   *         @arg @ref LL_GPIO_PIN_0
 408:Drivers/STM32F7xx_HAL_Driver/Inc/stm32f7xx_ll_gpio.h ****   *         @arg @ref LL_GPIO_PIN_1
 409:Drivers/STM32F7xx_HAL_Driver/Inc/stm32f7xx_ll_gpio.h ****   *         @arg @ref LL_GPIO_PIN_2
 410:Drivers/STM32F7xx_HAL_Driver/Inc/stm32f7xx_ll_gpio.h ****   *         @arg @ref LL_GPIO_PIN_3
 411:Drivers/STM32F7xx_HAL_Driver/Inc/stm32f7xx_ll_gpio.h ****   *         @arg @ref LL_GPIO_PIN_4
 412:Drivers/STM32F7xx_HAL_Driver/Inc/stm32f7xx_ll_gpio.h ****   *         @arg @ref LL_GPIO_PIN_5
 413:Drivers/STM32F7xx_HAL_Driver/Inc/stm32f7xx_ll_gpio.h ****   *         @arg @ref LL_GPIO_PIN_6
 414:Drivers/STM32F7xx_HAL_Driver/Inc/stm32f7xx_ll_gpio.h ****   *         @arg @ref LL_GPIO_PIN_7
 415:Drivers/STM32F7xx_HAL_Driver/Inc/stm32f7xx_ll_gpio.h ****   *         @arg @ref LL_GPIO_PIN_8
 416:Drivers/STM32F7xx_HAL_Driver/Inc/stm32f7xx_ll_gpio.h ****   *         @arg @ref LL_GPIO_PIN_9
 417:Drivers/STM32F7xx_HAL_Driver/Inc/stm32f7xx_ll_gpio.h ****   *         @arg @ref LL_GPIO_PIN_10
 418:Drivers/STM32F7xx_HAL_Driver/Inc/stm32f7xx_ll_gpio.h ****   *         @arg @ref LL_GPIO_PIN_11
 419:Drivers/STM32F7xx_HAL_Driver/Inc/stm32f7xx_ll_gpio.h ****   *         @arg @ref LL_GPIO_PIN_12
 420:Drivers/STM32F7xx_HAL_Driver/Inc/stm32f7xx_ll_gpio.h ****   *         @arg @ref LL_GPIO_PIN_13
 421:Drivers/STM32F7xx_HAL_Driver/Inc/stm32f7xx_ll_gpio.h ****   *         @arg @ref LL_GPIO_PIN_14
 422:Drivers/STM32F7xx_HAL_Driver/Inc/stm32f7xx_ll_gpio.h ****   *         @arg @ref LL_GPIO_PIN_15
 423:Drivers/STM32F7xx_HAL_Driver/Inc/stm32f7xx_ll_gpio.h ****   * @param  Speed This parameter can be one of the following values:
 424:Drivers/STM32F7xx_HAL_Driver/Inc/stm32f7xx_ll_gpio.h ****   *         @arg @ref LL_GPIO_SPEED_FREQ_LOW
 425:Drivers/STM32F7xx_HAL_Driver/Inc/stm32f7xx_ll_gpio.h ****   *         @arg @ref LL_GPIO_SPEED_FREQ_MEDIUM
 426:Drivers/STM32F7xx_HAL_Driver/Inc/stm32f7xx_ll_gpio.h ****   *         @arg @ref LL_GPIO_SPEED_FREQ_HIGH
 427:Drivers/STM32F7xx_HAL_Driver/Inc/stm32f7xx_ll_gpio.h ****   *         @arg @ref LL_GPIO_SPEED_FREQ_VERY_HIGH
 428:Drivers/STM32F7xx_HAL_Driver/Inc/stm32f7xx_ll_gpio.h ****   * @retval None
 429:Drivers/STM32F7xx_HAL_Driver/Inc/stm32f7xx_ll_gpio.h ****   */
 430:Drivers/STM32F7xx_HAL_Driver/Inc/stm32f7xx_ll_gpio.h **** __STATIC_INLINE void LL_GPIO_SetPinSpeed(GPIO_TypeDef *GPIOx, uint32_t Pin, uint32_t  Speed)
 431:Drivers/STM32F7xx_HAL_Driver/Inc/stm32f7xx_ll_gpio.h **** {
 432:Drivers/STM32F7xx_HAL_Driver/Inc/stm32f7xx_ll_gpio.h ****   MODIFY_REG(GPIOx->OSPEEDR, (GPIO_OSPEEDER_OSPEEDR0 << (POSITION_VAL(Pin) * 2U)),
 433:Drivers/STM32F7xx_HAL_Driver/Inc/stm32f7xx_ll_gpio.h ****              (Speed << (POSITION_VAL(Pin) * 2U)));
 434:Drivers/STM32F7xx_HAL_Driver/Inc/stm32f7xx_ll_gpio.h **** }
 435:Drivers/STM32F7xx_HAL_Driver/Inc/stm32f7xx_ll_gpio.h **** 
 436:Drivers/STM32F7xx_HAL_Driver/Inc/stm32f7xx_ll_gpio.h **** /**
 437:Drivers/STM32F7xx_HAL_Driver/Inc/stm32f7xx_ll_gpio.h ****   * @brief  Return gpio speed for a dedicated pin on dedicated port.
 438:Drivers/STM32F7xx_HAL_Driver/Inc/stm32f7xx_ll_gpio.h ****   * @note   I/O speed can be Low, Medium, Fast or High speed.
 439:Drivers/STM32F7xx_HAL_Driver/Inc/stm32f7xx_ll_gpio.h ****   * @note   Warning: only one pin can be passed as parameter.
 440:Drivers/STM32F7xx_HAL_Driver/Inc/stm32f7xx_ll_gpio.h ****   * @note   Refer to datasheet for frequency specifications and the power
 441:Drivers/STM32F7xx_HAL_Driver/Inc/stm32f7xx_ll_gpio.h ****   *         supply and load conditions for each speed.
 442:Drivers/STM32F7xx_HAL_Driver/Inc/stm32f7xx_ll_gpio.h ****   * @rmtoll OSPEEDR      OSPEEDy       LL_GPIO_GetPinSpeed
 443:Drivers/STM32F7xx_HAL_Driver/Inc/stm32f7xx_ll_gpio.h ****   * @param  GPIOx GPIO Port
 444:Drivers/STM32F7xx_HAL_Driver/Inc/stm32f7xx_ll_gpio.h ****   * @param  Pin This parameter can be one of the following values:
 445:Drivers/STM32F7xx_HAL_Driver/Inc/stm32f7xx_ll_gpio.h ****   *         @arg @ref LL_GPIO_PIN_0
 446:Drivers/STM32F7xx_HAL_Driver/Inc/stm32f7xx_ll_gpio.h ****   *         @arg @ref LL_GPIO_PIN_1
 447:Drivers/STM32F7xx_HAL_Driver/Inc/stm32f7xx_ll_gpio.h ****   *         @arg @ref LL_GPIO_PIN_2
 448:Drivers/STM32F7xx_HAL_Driver/Inc/stm32f7xx_ll_gpio.h ****   *         @arg @ref LL_GPIO_PIN_3
 449:Drivers/STM32F7xx_HAL_Driver/Inc/stm32f7xx_ll_gpio.h ****   *         @arg @ref LL_GPIO_PIN_4
 450:Drivers/STM32F7xx_HAL_Driver/Inc/stm32f7xx_ll_gpio.h ****   *         @arg @ref LL_GPIO_PIN_5
 451:Drivers/STM32F7xx_HAL_Driver/Inc/stm32f7xx_ll_gpio.h ****   *         @arg @ref LL_GPIO_PIN_6
 452:Drivers/STM32F7xx_HAL_Driver/Inc/stm32f7xx_ll_gpio.h ****   *         @arg @ref LL_GPIO_PIN_7
 453:Drivers/STM32F7xx_HAL_Driver/Inc/stm32f7xx_ll_gpio.h ****   *         @arg @ref LL_GPIO_PIN_8
 454:Drivers/STM32F7xx_HAL_Driver/Inc/stm32f7xx_ll_gpio.h ****   *         @arg @ref LL_GPIO_PIN_9
 455:Drivers/STM32F7xx_HAL_Driver/Inc/stm32f7xx_ll_gpio.h ****   *         @arg @ref LL_GPIO_PIN_10
 456:Drivers/STM32F7xx_HAL_Driver/Inc/stm32f7xx_ll_gpio.h ****   *         @arg @ref LL_GPIO_PIN_11
 457:Drivers/STM32F7xx_HAL_Driver/Inc/stm32f7xx_ll_gpio.h ****   *         @arg @ref LL_GPIO_PIN_12
 458:Drivers/STM32F7xx_HAL_Driver/Inc/stm32f7xx_ll_gpio.h ****   *         @arg @ref LL_GPIO_PIN_13
 459:Drivers/STM32F7xx_HAL_Driver/Inc/stm32f7xx_ll_gpio.h ****   *         @arg @ref LL_GPIO_PIN_14
 460:Drivers/STM32F7xx_HAL_Driver/Inc/stm32f7xx_ll_gpio.h ****   *         @arg @ref LL_GPIO_PIN_15
 461:Drivers/STM32F7xx_HAL_Driver/Inc/stm32f7xx_ll_gpio.h ****   * @retval Returned value can be one of the following values:
 462:Drivers/STM32F7xx_HAL_Driver/Inc/stm32f7xx_ll_gpio.h ****   *         @arg @ref LL_GPIO_SPEED_FREQ_LOW
 463:Drivers/STM32F7xx_HAL_Driver/Inc/stm32f7xx_ll_gpio.h ****   *         @arg @ref LL_GPIO_SPEED_FREQ_MEDIUM
ARM GAS  /tmp/cc6sio8H.s 			page 40


 464:Drivers/STM32F7xx_HAL_Driver/Inc/stm32f7xx_ll_gpio.h ****   *         @arg @ref LL_GPIO_SPEED_FREQ_HIGH
 465:Drivers/STM32F7xx_HAL_Driver/Inc/stm32f7xx_ll_gpio.h ****   *         @arg @ref LL_GPIO_SPEED_FREQ_VERY_HIGH
 466:Drivers/STM32F7xx_HAL_Driver/Inc/stm32f7xx_ll_gpio.h ****   */
 467:Drivers/STM32F7xx_HAL_Driver/Inc/stm32f7xx_ll_gpio.h **** __STATIC_INLINE uint32_t LL_GPIO_GetPinSpeed(GPIO_TypeDef *GPIOx, uint32_t Pin)
 468:Drivers/STM32F7xx_HAL_Driver/Inc/stm32f7xx_ll_gpio.h **** {
 469:Drivers/STM32F7xx_HAL_Driver/Inc/stm32f7xx_ll_gpio.h ****   return (uint32_t)(READ_BIT(GPIOx->OSPEEDR,
 470:Drivers/STM32F7xx_HAL_Driver/Inc/stm32f7xx_ll_gpio.h ****                              (GPIO_OSPEEDER_OSPEEDR0 << (POSITION_VAL(Pin) * 2U))) >> (POSITION_VAL
 471:Drivers/STM32F7xx_HAL_Driver/Inc/stm32f7xx_ll_gpio.h **** }
 472:Drivers/STM32F7xx_HAL_Driver/Inc/stm32f7xx_ll_gpio.h **** 
 473:Drivers/STM32F7xx_HAL_Driver/Inc/stm32f7xx_ll_gpio.h **** /**
 474:Drivers/STM32F7xx_HAL_Driver/Inc/stm32f7xx_ll_gpio.h ****   * @brief  Configure gpio pull-up or pull-down for a dedicated pin on a dedicated port.
 475:Drivers/STM32F7xx_HAL_Driver/Inc/stm32f7xx_ll_gpio.h ****   * @note   Warning: only one pin can be passed as parameter.
 476:Drivers/STM32F7xx_HAL_Driver/Inc/stm32f7xx_ll_gpio.h ****   * @rmtoll PUPDR        PUPDy         LL_GPIO_SetPinPull
 477:Drivers/STM32F7xx_HAL_Driver/Inc/stm32f7xx_ll_gpio.h ****   * @param  GPIOx GPIO Port
 478:Drivers/STM32F7xx_HAL_Driver/Inc/stm32f7xx_ll_gpio.h ****   * @param  Pin This parameter can be one of the following values:
 479:Drivers/STM32F7xx_HAL_Driver/Inc/stm32f7xx_ll_gpio.h ****   *         @arg @ref LL_GPIO_PIN_0
 480:Drivers/STM32F7xx_HAL_Driver/Inc/stm32f7xx_ll_gpio.h ****   *         @arg @ref LL_GPIO_PIN_1
 481:Drivers/STM32F7xx_HAL_Driver/Inc/stm32f7xx_ll_gpio.h ****   *         @arg @ref LL_GPIO_PIN_2
 482:Drivers/STM32F7xx_HAL_Driver/Inc/stm32f7xx_ll_gpio.h ****   *         @arg @ref LL_GPIO_PIN_3
 483:Drivers/STM32F7xx_HAL_Driver/Inc/stm32f7xx_ll_gpio.h ****   *         @arg @ref LL_GPIO_PIN_4
 484:Drivers/STM32F7xx_HAL_Driver/Inc/stm32f7xx_ll_gpio.h ****   *         @arg @ref LL_GPIO_PIN_5
 485:Drivers/STM32F7xx_HAL_Driver/Inc/stm32f7xx_ll_gpio.h ****   *         @arg @ref LL_GPIO_PIN_6
 486:Drivers/STM32F7xx_HAL_Driver/Inc/stm32f7xx_ll_gpio.h ****   *         @arg @ref LL_GPIO_PIN_7
 487:Drivers/STM32F7xx_HAL_Driver/Inc/stm32f7xx_ll_gpio.h ****   *         @arg @ref LL_GPIO_PIN_8
 488:Drivers/STM32F7xx_HAL_Driver/Inc/stm32f7xx_ll_gpio.h ****   *         @arg @ref LL_GPIO_PIN_9
 489:Drivers/STM32F7xx_HAL_Driver/Inc/stm32f7xx_ll_gpio.h ****   *         @arg @ref LL_GPIO_PIN_10
 490:Drivers/STM32F7xx_HAL_Driver/Inc/stm32f7xx_ll_gpio.h ****   *         @arg @ref LL_GPIO_PIN_11
 491:Drivers/STM32F7xx_HAL_Driver/Inc/stm32f7xx_ll_gpio.h ****   *         @arg @ref LL_GPIO_PIN_12
 492:Drivers/STM32F7xx_HAL_Driver/Inc/stm32f7xx_ll_gpio.h ****   *         @arg @ref LL_GPIO_PIN_13
 493:Drivers/STM32F7xx_HAL_Driver/Inc/stm32f7xx_ll_gpio.h ****   *         @arg @ref LL_GPIO_PIN_14
 494:Drivers/STM32F7xx_HAL_Driver/Inc/stm32f7xx_ll_gpio.h ****   *         @arg @ref LL_GPIO_PIN_15
 495:Drivers/STM32F7xx_HAL_Driver/Inc/stm32f7xx_ll_gpio.h ****   * @param  Pull This parameter can be one of the following values:
 496:Drivers/STM32F7xx_HAL_Driver/Inc/stm32f7xx_ll_gpio.h ****   *         @arg @ref LL_GPIO_PULL_NO
 497:Drivers/STM32F7xx_HAL_Driver/Inc/stm32f7xx_ll_gpio.h ****   *         @arg @ref LL_GPIO_PULL_UP
 498:Drivers/STM32F7xx_HAL_Driver/Inc/stm32f7xx_ll_gpio.h ****   *         @arg @ref LL_GPIO_PULL_DOWN
 499:Drivers/STM32F7xx_HAL_Driver/Inc/stm32f7xx_ll_gpio.h ****   * @retval None
 500:Drivers/STM32F7xx_HAL_Driver/Inc/stm32f7xx_ll_gpio.h ****   */
 501:Drivers/STM32F7xx_HAL_Driver/Inc/stm32f7xx_ll_gpio.h **** __STATIC_INLINE void LL_GPIO_SetPinPull(GPIO_TypeDef *GPIOx, uint32_t Pin, uint32_t Pull)
 502:Drivers/STM32F7xx_HAL_Driver/Inc/stm32f7xx_ll_gpio.h **** {
 503:Drivers/STM32F7xx_HAL_Driver/Inc/stm32f7xx_ll_gpio.h ****   MODIFY_REG(GPIOx->PUPDR, (GPIO_PUPDR_PUPDR0 << (POSITION_VAL(Pin) * 2U)), (Pull << (POSITION_VAL(
 417              		.loc 4 503 0
 418 0010 C468     		ldr	r4, [r0, #12]
 419              	.LVL42:
 420              	.LBB154:
 421              	.LBB155:
 422              		.loc 3 531 0
 423              		.syntax unified
 424              	@ 531 "Drivers/CMSIS/Include/cmsis_gcc.h" 1
 425 0012 93FAA3F5 		rbit r5, r3
 426              	@ 0 "" 2
 427              	.LVL43:
 428              		.thumb
 429              		.syntax unified
 430              	.LBE155:
 431              	.LBE154:
 432              		.loc 4 503 0
 433 0016 B5FA85F5 		clz	r5, r5
ARM GAS  /tmp/cc6sio8H.s 			page 41


 434 001a 6D00     		lsls	r5, r5, #1
 435 001c 0327     		movs	r7, #3
 436 001e 07FA05F5 		lsl	r5, r7, r5
 437 0022 24EA0504 		bic	r4, r4, r5
 438              	.LVL44:
 439              	.LBB156:
 440              	.LBB157:
 441              		.loc 3 531 0
 442              		.syntax unified
 443              	@ 531 "Drivers/CMSIS/Include/cmsis_gcc.h" 1
 444 0026 93FAA3F5 		rbit r5, r3
 445              	@ 0 "" 2
 446              	.LVL45:
 447              		.thumb
 448              		.syntax unified
 449              	.LBE157:
 450              	.LBE156:
 451              		.loc 4 503 0
 452 002a B5FA85F5 		clz	r5, r5
 453 002e 6D00     		lsls	r5, r5, #1
 454 0030 06FA05F5 		lsl	r5, r6, r5
 455 0034 2C43     		orrs	r4, r4, r5
 456 0036 C460     		str	r4, [r0, #12]
 457              	.LVL46:
 458              	.LBE153:
 459              	.LBE152:
 253:Drivers/STM32F7xx_HAL_Driver/Src/stm32f7xx_ll_gpio.c **** 
 254:Drivers/STM32F7xx_HAL_Driver/Src/stm32f7xx_ll_gpio.c ****       if (GPIO_InitStruct->Mode == LL_GPIO_MODE_ALTERNATE)
 460              		.loc 1 254 0
 461 0038 4C68     		ldr	r4, [r1, #4]
 462 003a 022C     		cmp	r4, #2
 463 003c 36D0     		beq	.L35
 464              	.LVL47:
 465              	.L29:
 255:Drivers/STM32F7xx_HAL_Driver/Src/stm32f7xx_ll_gpio.c ****       {
 256:Drivers/STM32F7xx_HAL_Driver/Src/stm32f7xx_ll_gpio.c ****         /* Check Alternate parameter */
 257:Drivers/STM32F7xx_HAL_Driver/Src/stm32f7xx_ll_gpio.c ****         assert_param(IS_LL_GPIO_ALTERNATE(GPIO_InitStruct->Alternate));
 258:Drivers/STM32F7xx_HAL_Driver/Src/stm32f7xx_ll_gpio.c **** 
 259:Drivers/STM32F7xx_HAL_Driver/Src/stm32f7xx_ll_gpio.c ****         /* Speed mode configuration */
 260:Drivers/STM32F7xx_HAL_Driver/Src/stm32f7xx_ll_gpio.c ****         if (POSITION_VAL(currentpin) < 0x00000008U)
 261:Drivers/STM32F7xx_HAL_Driver/Src/stm32f7xx_ll_gpio.c ****         {
 262:Drivers/STM32F7xx_HAL_Driver/Src/stm32f7xx_ll_gpio.c ****           LL_GPIO_SetAFPin_0_7(GPIOx, currentpin, GPIO_InitStruct->Alternate);
 263:Drivers/STM32F7xx_HAL_Driver/Src/stm32f7xx_ll_gpio.c ****         }
 264:Drivers/STM32F7xx_HAL_Driver/Src/stm32f7xx_ll_gpio.c ****         else
 265:Drivers/STM32F7xx_HAL_Driver/Src/stm32f7xx_ll_gpio.c ****         {
 266:Drivers/STM32F7xx_HAL_Driver/Src/stm32f7xx_ll_gpio.c ****           LL_GPIO_SetAFPin_8_15(GPIOx, currentpin, GPIO_InitStruct->Alternate);
 267:Drivers/STM32F7xx_HAL_Driver/Src/stm32f7xx_ll_gpio.c ****         }
 268:Drivers/STM32F7xx_HAL_Driver/Src/stm32f7xx_ll_gpio.c ****       }
 269:Drivers/STM32F7xx_HAL_Driver/Src/stm32f7xx_ll_gpio.c ****     }
 270:Drivers/STM32F7xx_HAL_Driver/Src/stm32f7xx_ll_gpio.c ****     pinpos++;
 466              		.loc 1 270 0
 467 003e 0132     		adds	r2, r2, #1
 468              	.LVL48:
 469              	.L28:
 232:Drivers/STM32F7xx_HAL_Driver/Src/stm32f7xx_ll_gpio.c ****   {
 470              		.loc 1 232 0
 471 0040 0B68     		ldr	r3, [r1]
ARM GAS  /tmp/cc6sio8H.s 			page 42


 472 0042 33FA02F4 		lsrs	r4, r3, r2
 473 0046 64D0     		beq	.L36
 235:Drivers/STM32F7xx_HAL_Driver/Src/stm32f7xx_ll_gpio.c **** 
 474              		.loc 1 235 0
 475 0048 0124     		movs	r4, #1
 476 004a 9440     		lsls	r4, r4, r2
 477              	.LVL49:
 237:Drivers/STM32F7xx_HAL_Driver/Src/stm32f7xx_ll_gpio.c ****     {
 478              		.loc 1 237 0
 479 004c 2340     		ands	r3, r4, r3
 480              	.LVL50:
 481 004e F6D0     		beq	.L29
 240:Drivers/STM32F7xx_HAL_Driver/Src/stm32f7xx_ll_gpio.c **** 
 482              		.loc 1 240 0
 483 0050 4E68     		ldr	r6, [r1, #4]
 484              	.LVL51:
 485              	.LBB158:
 486              	.LBB159:
 292:Drivers/STM32F7xx_HAL_Driver/Inc/stm32f7xx_ll_gpio.h **** }
 487              		.loc 4 292 0
 488 0052 0468     		ldr	r4, [r0]
 489              	.LVL52:
 490              	.LBB160:
 491              	.LBB161:
 492              		.loc 3 531 0
 493              		.syntax unified
 494              	@ 531 "Drivers/CMSIS/Include/cmsis_gcc.h" 1
 495 0054 93FAA3F5 		rbit r5, r3
 496              	@ 0 "" 2
 497              	.LVL53:
 498              		.thumb
 499              		.syntax unified
 500              	.LBE161:
 501              	.LBE160:
 292:Drivers/STM32F7xx_HAL_Driver/Inc/stm32f7xx_ll_gpio.h **** }
 502              		.loc 4 292 0
 503 0058 B5FA85F5 		clz	r5, r5
 504 005c 6D00     		lsls	r5, r5, #1
 505 005e 0327     		movs	r7, #3
 506 0060 07FA05F5 		lsl	r5, r7, r5
 507 0064 24EA0504 		bic	r4, r4, r5
 508              	.LVL54:
 509              	.LBB162:
 510              	.LBB163:
 511              		.loc 3 531 0
 512              		.syntax unified
 513              	@ 531 "Drivers/CMSIS/Include/cmsis_gcc.h" 1
 514 0068 93FAA3F5 		rbit r5, r3
 515              	@ 0 "" 2
 516              	.LVL55:
 517              		.thumb
 518              		.syntax unified
 519              	.LBE163:
 520              	.LBE162:
 292:Drivers/STM32F7xx_HAL_Driver/Inc/stm32f7xx_ll_gpio.h **** }
 521              		.loc 4 292 0
 522 006c B5FA85F5 		clz	r5, r5
ARM GAS  /tmp/cc6sio8H.s 			page 43


 523 0070 6D00     		lsls	r5, r5, #1
 524 0072 06FA05F5 		lsl	r5, r6, r5
 525 0076 2C43     		orrs	r4, r4, r5
 526 0078 0460     		str	r4, [r0]
 527              	.LVL56:
 528              	.LBE159:
 529              	.LBE158:
 242:Drivers/STM32F7xx_HAL_Driver/Src/stm32f7xx_ll_gpio.c ****       {
 530              		.loc 1 242 0
 531 007a 4C68     		ldr	r4, [r1, #4]
 532 007c 013C     		subs	r4, r4, #1
 533 007e 012C     		cmp	r4, #1
 534 0080 C5D8     		bhi	.L30
 248:Drivers/STM32F7xx_HAL_Driver/Src/stm32f7xx_ll_gpio.c ****       }
 535              		.loc 1 248 0
 536 0082 8E68     		ldr	r6, [r1, #8]
 537              	.LVL57:
 538              	.LBB164:
 539              	.LBB165:
 432:Drivers/STM32F7xx_HAL_Driver/Inc/stm32f7xx_ll_gpio.h ****              (Speed << (POSITION_VAL(Pin) * 2U)));
 540              		.loc 4 432 0
 541 0084 8468     		ldr	r4, [r0, #8]
 542              	.LVL58:
 543              	.LBB166:
 544              	.LBB167:
 545              		.loc 3 531 0
 546              		.syntax unified
 547              	@ 531 "Drivers/CMSIS/Include/cmsis_gcc.h" 1
 548 0086 93FAA3F5 		rbit r5, r3
 549              	@ 0 "" 2
 550              	.LVL59:
 551              		.thumb
 552              		.syntax unified
 553              	.LBE167:
 554              	.LBE166:
 432:Drivers/STM32F7xx_HAL_Driver/Inc/stm32f7xx_ll_gpio.h ****              (Speed << (POSITION_VAL(Pin) * 2U)));
 555              		.loc 4 432 0
 556 008a B5FA85F5 		clz	r5, r5
 557 008e 6D00     		lsls	r5, r5, #1
 558 0090 07FA05F5 		lsl	r5, r7, r5
 559 0094 24EA0504 		bic	r4, r4, r5
 560              	.LVL60:
 561              	.LBB168:
 562              	.LBB169:
 563              		.loc 3 531 0
 564              		.syntax unified
 565              	@ 531 "Drivers/CMSIS/Include/cmsis_gcc.h" 1
 566 0098 93FAA3F5 		rbit r5, r3
 567              	@ 0 "" 2
 568              	.LVL61:
 569              		.thumb
 570              		.syntax unified
 571              	.LBE169:
 572              	.LBE168:
 432:Drivers/STM32F7xx_HAL_Driver/Inc/stm32f7xx_ll_gpio.h ****              (Speed << (POSITION_VAL(Pin) * 2U)));
 573              		.loc 4 432 0
 574 009c B5FA85F5 		clz	r5, r5
ARM GAS  /tmp/cc6sio8H.s 			page 44


 575 00a0 6D00     		lsls	r5, r5, #1
 576 00a2 06FA05F5 		lsl	r5, r6, r5
 577 00a6 2C43     		orrs	r4, r4, r5
 578 00a8 8460     		str	r4, [r0, #8]
 579 00aa B0E7     		b	.L30
 580              	.LVL62:
 581              	.L35:
 582              	.LBE165:
 583              	.LBE164:
 584              	.LBB170:
 585              	.LBB171:
 586              		.loc 3 531 0
 587              		.syntax unified
 588              	@ 531 "Drivers/CMSIS/Include/cmsis_gcc.h" 1
 589 00ac 93FAA3F4 		rbit r4, r3
 590              	@ 0 "" 2
 591              	.LVL63:
 592              		.thumb
 593              		.syntax unified
 594              	.LBE171:
 595              	.LBE170:
 260:Drivers/STM32F7xx_HAL_Driver/Src/stm32f7xx_ll_gpio.c ****         {
 596              		.loc 1 260 0
 597 00b0 B4FA84F4 		clz	r4, r4
 598 00b4 072C     		cmp	r4, #7
 599 00b6 15D8     		bhi	.L31
 262:Drivers/STM32F7xx_HAL_Driver/Src/stm32f7xx_ll_gpio.c ****         }
 600              		.loc 1 262 0
 601 00b8 4D69     		ldr	r5, [r1, #20]
 602              	.LVL64:
 603              	.LBB172:
 604              	.LBB173:
 504:Drivers/STM32F7xx_HAL_Driver/Inc/stm32f7xx_ll_gpio.h **** }
 505:Drivers/STM32F7xx_HAL_Driver/Inc/stm32f7xx_ll_gpio.h **** 
 506:Drivers/STM32F7xx_HAL_Driver/Inc/stm32f7xx_ll_gpio.h **** /**
 507:Drivers/STM32F7xx_HAL_Driver/Inc/stm32f7xx_ll_gpio.h ****   * @brief  Return gpio pull-up or pull-down for a dedicated pin on a dedicated port
 508:Drivers/STM32F7xx_HAL_Driver/Inc/stm32f7xx_ll_gpio.h ****   * @note   Warning: only one pin can be passed as parameter.
 509:Drivers/STM32F7xx_HAL_Driver/Inc/stm32f7xx_ll_gpio.h ****   * @rmtoll PUPDR        PUPDy         LL_GPIO_GetPinPull
 510:Drivers/STM32F7xx_HAL_Driver/Inc/stm32f7xx_ll_gpio.h ****   * @param  GPIOx GPIO Port
 511:Drivers/STM32F7xx_HAL_Driver/Inc/stm32f7xx_ll_gpio.h ****   * @param  Pin This parameter can be one of the following values:
 512:Drivers/STM32F7xx_HAL_Driver/Inc/stm32f7xx_ll_gpio.h ****   *         @arg @ref LL_GPIO_PIN_0
 513:Drivers/STM32F7xx_HAL_Driver/Inc/stm32f7xx_ll_gpio.h ****   *         @arg @ref LL_GPIO_PIN_1
 514:Drivers/STM32F7xx_HAL_Driver/Inc/stm32f7xx_ll_gpio.h ****   *         @arg @ref LL_GPIO_PIN_2
 515:Drivers/STM32F7xx_HAL_Driver/Inc/stm32f7xx_ll_gpio.h ****   *         @arg @ref LL_GPIO_PIN_3
 516:Drivers/STM32F7xx_HAL_Driver/Inc/stm32f7xx_ll_gpio.h ****   *         @arg @ref LL_GPIO_PIN_4
 517:Drivers/STM32F7xx_HAL_Driver/Inc/stm32f7xx_ll_gpio.h ****   *         @arg @ref LL_GPIO_PIN_5
 518:Drivers/STM32F7xx_HAL_Driver/Inc/stm32f7xx_ll_gpio.h ****   *         @arg @ref LL_GPIO_PIN_6
 519:Drivers/STM32F7xx_HAL_Driver/Inc/stm32f7xx_ll_gpio.h ****   *         @arg @ref LL_GPIO_PIN_7
 520:Drivers/STM32F7xx_HAL_Driver/Inc/stm32f7xx_ll_gpio.h ****   *         @arg @ref LL_GPIO_PIN_8
 521:Drivers/STM32F7xx_HAL_Driver/Inc/stm32f7xx_ll_gpio.h ****   *         @arg @ref LL_GPIO_PIN_9
 522:Drivers/STM32F7xx_HAL_Driver/Inc/stm32f7xx_ll_gpio.h ****   *         @arg @ref LL_GPIO_PIN_10
 523:Drivers/STM32F7xx_HAL_Driver/Inc/stm32f7xx_ll_gpio.h ****   *         @arg @ref LL_GPIO_PIN_11
 524:Drivers/STM32F7xx_HAL_Driver/Inc/stm32f7xx_ll_gpio.h ****   *         @arg @ref LL_GPIO_PIN_12
 525:Drivers/STM32F7xx_HAL_Driver/Inc/stm32f7xx_ll_gpio.h ****   *         @arg @ref LL_GPIO_PIN_13
 526:Drivers/STM32F7xx_HAL_Driver/Inc/stm32f7xx_ll_gpio.h ****   *         @arg @ref LL_GPIO_PIN_14
 527:Drivers/STM32F7xx_HAL_Driver/Inc/stm32f7xx_ll_gpio.h ****   *         @arg @ref LL_GPIO_PIN_15
 528:Drivers/STM32F7xx_HAL_Driver/Inc/stm32f7xx_ll_gpio.h ****   * @retval Returned value can be one of the following values:
ARM GAS  /tmp/cc6sio8H.s 			page 45


 529:Drivers/STM32F7xx_HAL_Driver/Inc/stm32f7xx_ll_gpio.h ****   *         @arg @ref LL_GPIO_PULL_NO
 530:Drivers/STM32F7xx_HAL_Driver/Inc/stm32f7xx_ll_gpio.h ****   *         @arg @ref LL_GPIO_PULL_UP
 531:Drivers/STM32F7xx_HAL_Driver/Inc/stm32f7xx_ll_gpio.h ****   *         @arg @ref LL_GPIO_PULL_DOWN
 532:Drivers/STM32F7xx_HAL_Driver/Inc/stm32f7xx_ll_gpio.h ****   */
 533:Drivers/STM32F7xx_HAL_Driver/Inc/stm32f7xx_ll_gpio.h **** __STATIC_INLINE uint32_t LL_GPIO_GetPinPull(GPIO_TypeDef *GPIOx, uint32_t Pin)
 534:Drivers/STM32F7xx_HAL_Driver/Inc/stm32f7xx_ll_gpio.h **** {
 535:Drivers/STM32F7xx_HAL_Driver/Inc/stm32f7xx_ll_gpio.h ****   return (uint32_t)(READ_BIT(GPIOx->PUPDR,
 536:Drivers/STM32F7xx_HAL_Driver/Inc/stm32f7xx_ll_gpio.h ****                              (GPIO_PUPDR_PUPDR0 << (POSITION_VAL(Pin) * 2U))) >> (POSITION_VAL(Pin)
 537:Drivers/STM32F7xx_HAL_Driver/Inc/stm32f7xx_ll_gpio.h **** }
 538:Drivers/STM32F7xx_HAL_Driver/Inc/stm32f7xx_ll_gpio.h **** 
 539:Drivers/STM32F7xx_HAL_Driver/Inc/stm32f7xx_ll_gpio.h **** /**
 540:Drivers/STM32F7xx_HAL_Driver/Inc/stm32f7xx_ll_gpio.h ****   * @brief  Configure gpio alternate function of a dedicated pin from 0 to 7 for a dedicated port.
 541:Drivers/STM32F7xx_HAL_Driver/Inc/stm32f7xx_ll_gpio.h ****   * @note   Possible values are from AF0 to AF15 depending on target.
 542:Drivers/STM32F7xx_HAL_Driver/Inc/stm32f7xx_ll_gpio.h ****   * @note   Warning: only one pin can be passed as parameter.
 543:Drivers/STM32F7xx_HAL_Driver/Inc/stm32f7xx_ll_gpio.h ****   * @rmtoll AFRL         AFSELy        LL_GPIO_SetAFPin_0_7
 544:Drivers/STM32F7xx_HAL_Driver/Inc/stm32f7xx_ll_gpio.h ****   * @param  GPIOx GPIO Port
 545:Drivers/STM32F7xx_HAL_Driver/Inc/stm32f7xx_ll_gpio.h ****   * @param  Pin This parameter can be one of the following values:
 546:Drivers/STM32F7xx_HAL_Driver/Inc/stm32f7xx_ll_gpio.h ****   *         @arg @ref LL_GPIO_PIN_0
 547:Drivers/STM32F7xx_HAL_Driver/Inc/stm32f7xx_ll_gpio.h ****   *         @arg @ref LL_GPIO_PIN_1
 548:Drivers/STM32F7xx_HAL_Driver/Inc/stm32f7xx_ll_gpio.h ****   *         @arg @ref LL_GPIO_PIN_2
 549:Drivers/STM32F7xx_HAL_Driver/Inc/stm32f7xx_ll_gpio.h ****   *         @arg @ref LL_GPIO_PIN_3
 550:Drivers/STM32F7xx_HAL_Driver/Inc/stm32f7xx_ll_gpio.h ****   *         @arg @ref LL_GPIO_PIN_4
 551:Drivers/STM32F7xx_HAL_Driver/Inc/stm32f7xx_ll_gpio.h ****   *         @arg @ref LL_GPIO_PIN_5
 552:Drivers/STM32F7xx_HAL_Driver/Inc/stm32f7xx_ll_gpio.h ****   *         @arg @ref LL_GPIO_PIN_6
 553:Drivers/STM32F7xx_HAL_Driver/Inc/stm32f7xx_ll_gpio.h ****   *         @arg @ref LL_GPIO_PIN_7
 554:Drivers/STM32F7xx_HAL_Driver/Inc/stm32f7xx_ll_gpio.h ****   * @param  Alternate This parameter can be one of the following values:
 555:Drivers/STM32F7xx_HAL_Driver/Inc/stm32f7xx_ll_gpio.h ****   *         @arg @ref LL_GPIO_AF_0
 556:Drivers/STM32F7xx_HAL_Driver/Inc/stm32f7xx_ll_gpio.h ****   *         @arg @ref LL_GPIO_AF_1
 557:Drivers/STM32F7xx_HAL_Driver/Inc/stm32f7xx_ll_gpio.h ****   *         @arg @ref LL_GPIO_AF_2
 558:Drivers/STM32F7xx_HAL_Driver/Inc/stm32f7xx_ll_gpio.h ****   *         @arg @ref LL_GPIO_AF_3
 559:Drivers/STM32F7xx_HAL_Driver/Inc/stm32f7xx_ll_gpio.h ****   *         @arg @ref LL_GPIO_AF_4
 560:Drivers/STM32F7xx_HAL_Driver/Inc/stm32f7xx_ll_gpio.h ****   *         @arg @ref LL_GPIO_AF_5
 561:Drivers/STM32F7xx_HAL_Driver/Inc/stm32f7xx_ll_gpio.h ****   *         @arg @ref LL_GPIO_AF_6
 562:Drivers/STM32F7xx_HAL_Driver/Inc/stm32f7xx_ll_gpio.h ****   *         @arg @ref LL_GPIO_AF_7
 563:Drivers/STM32F7xx_HAL_Driver/Inc/stm32f7xx_ll_gpio.h ****   *         @arg @ref LL_GPIO_AF_8
 564:Drivers/STM32F7xx_HAL_Driver/Inc/stm32f7xx_ll_gpio.h ****   *         @arg @ref LL_GPIO_AF_9
 565:Drivers/STM32F7xx_HAL_Driver/Inc/stm32f7xx_ll_gpio.h ****   *         @arg @ref LL_GPIO_AF_10
 566:Drivers/STM32F7xx_HAL_Driver/Inc/stm32f7xx_ll_gpio.h ****   *         @arg @ref LL_GPIO_AF_11
 567:Drivers/STM32F7xx_HAL_Driver/Inc/stm32f7xx_ll_gpio.h ****   *         @arg @ref LL_GPIO_AF_12
 568:Drivers/STM32F7xx_HAL_Driver/Inc/stm32f7xx_ll_gpio.h ****   *         @arg @ref LL_GPIO_AF_13
 569:Drivers/STM32F7xx_HAL_Driver/Inc/stm32f7xx_ll_gpio.h ****   *         @arg @ref LL_GPIO_AF_14
 570:Drivers/STM32F7xx_HAL_Driver/Inc/stm32f7xx_ll_gpio.h ****   *         @arg @ref LL_GPIO_AF_15
 571:Drivers/STM32F7xx_HAL_Driver/Inc/stm32f7xx_ll_gpio.h ****   * @retval None
 572:Drivers/STM32F7xx_HAL_Driver/Inc/stm32f7xx_ll_gpio.h ****   */
 573:Drivers/STM32F7xx_HAL_Driver/Inc/stm32f7xx_ll_gpio.h **** __STATIC_INLINE void LL_GPIO_SetAFPin_0_7(GPIO_TypeDef *GPIOx, uint32_t Pin, uint32_t Alternate)
 574:Drivers/STM32F7xx_HAL_Driver/Inc/stm32f7xx_ll_gpio.h **** {
 575:Drivers/STM32F7xx_HAL_Driver/Inc/stm32f7xx_ll_gpio.h ****   MODIFY_REG(GPIOx->AFR[0], (GPIO_AFRL_AFRL0 << (POSITION_VAL(Pin) * 4U)),
 605              		.loc 4 575 0
 606 00ba 046A     		ldr	r4, [r0, #32]
 607              	.LVL65:
 608              	.LBB174:
 609              	.LBB175:
 610              		.loc 3 531 0
 611              		.syntax unified
 612              	@ 531 "Drivers/CMSIS/Include/cmsis_gcc.h" 1
 613 00bc 93FAA3F6 		rbit r6, r3
 614              	@ 0 "" 2
ARM GAS  /tmp/cc6sio8H.s 			page 46


 615              	.LVL66:
 616              		.thumb
 617              		.syntax unified
 618              	.LBE175:
 619              	.LBE174:
 620              		.loc 4 575 0
 621 00c0 B6FA86F6 		clz	r6, r6
 622 00c4 B600     		lsls	r6, r6, #2
 623 00c6 0F27     		movs	r7, #15
 624 00c8 07FA06F6 		lsl	r6, r7, r6
 625 00cc 24EA0604 		bic	r4, r4, r6
 626              	.LVL67:
 627              	.LBB176:
 628              	.LBB177:
 629              		.loc 3 531 0
 630              		.syntax unified
 631              	@ 531 "Drivers/CMSIS/Include/cmsis_gcc.h" 1
 632 00d0 93FAA3F3 		rbit r3, r3
 633              	@ 0 "" 2
 634              	.LVL68:
 635              		.thumb
 636              		.syntax unified
 637              	.LBE177:
 638              	.LBE176:
 639              		.loc 4 575 0
 640 00d4 B3FA83F3 		clz	r3, r3
 641 00d8 9B00     		lsls	r3, r3, #2
 642 00da 05FA03F3 		lsl	r3, r5, r3
 643 00de 2343     		orrs	r3, r3, r4
 644 00e0 0362     		str	r3, [r0, #32]
 645 00e2 ACE7     		b	.L29
 646              	.LVL69:
 647              	.L31:
 648              	.LBE173:
 649              	.LBE172:
 266:Drivers/STM32F7xx_HAL_Driver/Src/stm32f7xx_ll_gpio.c ****         }
 650              		.loc 1 266 0
 651 00e4 4C69     		ldr	r4, [r1, #20]
 652              	.LVL70:
 653              	.LBB178:
 654              	.LBB179:
 576:Drivers/STM32F7xx_HAL_Driver/Inc/stm32f7xx_ll_gpio.h ****              (Alternate << (POSITION_VAL(Pin) * 4U)));
 577:Drivers/STM32F7xx_HAL_Driver/Inc/stm32f7xx_ll_gpio.h **** }
 578:Drivers/STM32F7xx_HAL_Driver/Inc/stm32f7xx_ll_gpio.h **** 
 579:Drivers/STM32F7xx_HAL_Driver/Inc/stm32f7xx_ll_gpio.h **** /**
 580:Drivers/STM32F7xx_HAL_Driver/Inc/stm32f7xx_ll_gpio.h ****   * @brief  Return gpio alternate function of a dedicated pin from 0 to 7 for a dedicated port.
 581:Drivers/STM32F7xx_HAL_Driver/Inc/stm32f7xx_ll_gpio.h ****   * @rmtoll AFRL         AFSELy        LL_GPIO_GetAFPin_0_7
 582:Drivers/STM32F7xx_HAL_Driver/Inc/stm32f7xx_ll_gpio.h ****   * @param  GPIOx GPIO Port
 583:Drivers/STM32F7xx_HAL_Driver/Inc/stm32f7xx_ll_gpio.h ****   * @param  Pin This parameter can be one of the following values:
 584:Drivers/STM32F7xx_HAL_Driver/Inc/stm32f7xx_ll_gpio.h ****   *         @arg @ref LL_GPIO_PIN_0
 585:Drivers/STM32F7xx_HAL_Driver/Inc/stm32f7xx_ll_gpio.h ****   *         @arg @ref LL_GPIO_PIN_1
 586:Drivers/STM32F7xx_HAL_Driver/Inc/stm32f7xx_ll_gpio.h ****   *         @arg @ref LL_GPIO_PIN_2
 587:Drivers/STM32F7xx_HAL_Driver/Inc/stm32f7xx_ll_gpio.h ****   *         @arg @ref LL_GPIO_PIN_3
 588:Drivers/STM32F7xx_HAL_Driver/Inc/stm32f7xx_ll_gpio.h ****   *         @arg @ref LL_GPIO_PIN_4
 589:Drivers/STM32F7xx_HAL_Driver/Inc/stm32f7xx_ll_gpio.h ****   *         @arg @ref LL_GPIO_PIN_5
 590:Drivers/STM32F7xx_HAL_Driver/Inc/stm32f7xx_ll_gpio.h ****   *         @arg @ref LL_GPIO_PIN_6
 591:Drivers/STM32F7xx_HAL_Driver/Inc/stm32f7xx_ll_gpio.h ****   *         @arg @ref LL_GPIO_PIN_7
ARM GAS  /tmp/cc6sio8H.s 			page 47


 592:Drivers/STM32F7xx_HAL_Driver/Inc/stm32f7xx_ll_gpio.h ****   * @retval Returned value can be one of the following values:
 593:Drivers/STM32F7xx_HAL_Driver/Inc/stm32f7xx_ll_gpio.h ****   *         @arg @ref LL_GPIO_AF_0
 594:Drivers/STM32F7xx_HAL_Driver/Inc/stm32f7xx_ll_gpio.h ****   *         @arg @ref LL_GPIO_AF_1
 595:Drivers/STM32F7xx_HAL_Driver/Inc/stm32f7xx_ll_gpio.h ****   *         @arg @ref LL_GPIO_AF_2
 596:Drivers/STM32F7xx_HAL_Driver/Inc/stm32f7xx_ll_gpio.h ****   *         @arg @ref LL_GPIO_AF_3
 597:Drivers/STM32F7xx_HAL_Driver/Inc/stm32f7xx_ll_gpio.h ****   *         @arg @ref LL_GPIO_AF_4
 598:Drivers/STM32F7xx_HAL_Driver/Inc/stm32f7xx_ll_gpio.h ****   *         @arg @ref LL_GPIO_AF_5
 599:Drivers/STM32F7xx_HAL_Driver/Inc/stm32f7xx_ll_gpio.h ****   *         @arg @ref LL_GPIO_AF_6
 600:Drivers/STM32F7xx_HAL_Driver/Inc/stm32f7xx_ll_gpio.h ****   *         @arg @ref LL_GPIO_AF_7
 601:Drivers/STM32F7xx_HAL_Driver/Inc/stm32f7xx_ll_gpio.h ****   *         @arg @ref LL_GPIO_AF_8
 602:Drivers/STM32F7xx_HAL_Driver/Inc/stm32f7xx_ll_gpio.h ****   *         @arg @ref LL_GPIO_AF_9
 603:Drivers/STM32F7xx_HAL_Driver/Inc/stm32f7xx_ll_gpio.h ****   *         @arg @ref LL_GPIO_AF_10
 604:Drivers/STM32F7xx_HAL_Driver/Inc/stm32f7xx_ll_gpio.h ****   *         @arg @ref LL_GPIO_AF_11
 605:Drivers/STM32F7xx_HAL_Driver/Inc/stm32f7xx_ll_gpio.h ****   *         @arg @ref LL_GPIO_AF_12
 606:Drivers/STM32F7xx_HAL_Driver/Inc/stm32f7xx_ll_gpio.h ****   *         @arg @ref LL_GPIO_AF_13
 607:Drivers/STM32F7xx_HAL_Driver/Inc/stm32f7xx_ll_gpio.h ****   *         @arg @ref LL_GPIO_AF_14
 608:Drivers/STM32F7xx_HAL_Driver/Inc/stm32f7xx_ll_gpio.h ****   *         @arg @ref LL_GPIO_AF_15
 609:Drivers/STM32F7xx_HAL_Driver/Inc/stm32f7xx_ll_gpio.h ****   */
 610:Drivers/STM32F7xx_HAL_Driver/Inc/stm32f7xx_ll_gpio.h **** __STATIC_INLINE uint32_t LL_GPIO_GetAFPin_0_7(GPIO_TypeDef *GPIOx, uint32_t Pin)
 611:Drivers/STM32F7xx_HAL_Driver/Inc/stm32f7xx_ll_gpio.h **** {
 612:Drivers/STM32F7xx_HAL_Driver/Inc/stm32f7xx_ll_gpio.h ****   return (uint32_t)(READ_BIT(GPIOx->AFR[0],
 613:Drivers/STM32F7xx_HAL_Driver/Inc/stm32f7xx_ll_gpio.h ****                              (GPIO_AFRL_AFRL0 << (POSITION_VAL(Pin) * 4U))) >> (POSITION_VAL(Pin) *
 614:Drivers/STM32F7xx_HAL_Driver/Inc/stm32f7xx_ll_gpio.h **** }
 615:Drivers/STM32F7xx_HAL_Driver/Inc/stm32f7xx_ll_gpio.h **** 
 616:Drivers/STM32F7xx_HAL_Driver/Inc/stm32f7xx_ll_gpio.h **** /**
 617:Drivers/STM32F7xx_HAL_Driver/Inc/stm32f7xx_ll_gpio.h ****   * @brief  Configure gpio alternate function of a dedicated pin from 8 to 15 for a dedicated port.
 618:Drivers/STM32F7xx_HAL_Driver/Inc/stm32f7xx_ll_gpio.h ****   * @note   Possible values are from AF0 to AF15 depending on target.
 619:Drivers/STM32F7xx_HAL_Driver/Inc/stm32f7xx_ll_gpio.h ****   * @note   Warning: only one pin can be passed as parameter.
 620:Drivers/STM32F7xx_HAL_Driver/Inc/stm32f7xx_ll_gpio.h ****   * @rmtoll AFRH         AFSELy        LL_GPIO_SetAFPin_8_15
 621:Drivers/STM32F7xx_HAL_Driver/Inc/stm32f7xx_ll_gpio.h ****   * @param  GPIOx GPIO Port
 622:Drivers/STM32F7xx_HAL_Driver/Inc/stm32f7xx_ll_gpio.h ****   * @param  Pin This parameter can be one of the following values:
 623:Drivers/STM32F7xx_HAL_Driver/Inc/stm32f7xx_ll_gpio.h ****   *         @arg @ref LL_GPIO_PIN_8
 624:Drivers/STM32F7xx_HAL_Driver/Inc/stm32f7xx_ll_gpio.h ****   *         @arg @ref LL_GPIO_PIN_9
 625:Drivers/STM32F7xx_HAL_Driver/Inc/stm32f7xx_ll_gpio.h ****   *         @arg @ref LL_GPIO_PIN_10
 626:Drivers/STM32F7xx_HAL_Driver/Inc/stm32f7xx_ll_gpio.h ****   *         @arg @ref LL_GPIO_PIN_11
 627:Drivers/STM32F7xx_HAL_Driver/Inc/stm32f7xx_ll_gpio.h ****   *         @arg @ref LL_GPIO_PIN_12
 628:Drivers/STM32F7xx_HAL_Driver/Inc/stm32f7xx_ll_gpio.h ****   *         @arg @ref LL_GPIO_PIN_13
 629:Drivers/STM32F7xx_HAL_Driver/Inc/stm32f7xx_ll_gpio.h ****   *         @arg @ref LL_GPIO_PIN_14
 630:Drivers/STM32F7xx_HAL_Driver/Inc/stm32f7xx_ll_gpio.h ****   *         @arg @ref LL_GPIO_PIN_15
 631:Drivers/STM32F7xx_HAL_Driver/Inc/stm32f7xx_ll_gpio.h ****   * @param  Alternate This parameter can be one of the following values:
 632:Drivers/STM32F7xx_HAL_Driver/Inc/stm32f7xx_ll_gpio.h ****   *         @arg @ref LL_GPIO_AF_0
 633:Drivers/STM32F7xx_HAL_Driver/Inc/stm32f7xx_ll_gpio.h ****   *         @arg @ref LL_GPIO_AF_1
 634:Drivers/STM32F7xx_HAL_Driver/Inc/stm32f7xx_ll_gpio.h ****   *         @arg @ref LL_GPIO_AF_2
 635:Drivers/STM32F7xx_HAL_Driver/Inc/stm32f7xx_ll_gpio.h ****   *         @arg @ref LL_GPIO_AF_3
 636:Drivers/STM32F7xx_HAL_Driver/Inc/stm32f7xx_ll_gpio.h ****   *         @arg @ref LL_GPIO_AF_4
 637:Drivers/STM32F7xx_HAL_Driver/Inc/stm32f7xx_ll_gpio.h ****   *         @arg @ref LL_GPIO_AF_5
 638:Drivers/STM32F7xx_HAL_Driver/Inc/stm32f7xx_ll_gpio.h ****   *         @arg @ref LL_GPIO_AF_6
 639:Drivers/STM32F7xx_HAL_Driver/Inc/stm32f7xx_ll_gpio.h ****   *         @arg @ref LL_GPIO_AF_7
 640:Drivers/STM32F7xx_HAL_Driver/Inc/stm32f7xx_ll_gpio.h ****   *         @arg @ref LL_GPIO_AF_8
 641:Drivers/STM32F7xx_HAL_Driver/Inc/stm32f7xx_ll_gpio.h ****   *         @arg @ref LL_GPIO_AF_9
 642:Drivers/STM32F7xx_HAL_Driver/Inc/stm32f7xx_ll_gpio.h ****   *         @arg @ref LL_GPIO_AF_10
 643:Drivers/STM32F7xx_HAL_Driver/Inc/stm32f7xx_ll_gpio.h ****   *         @arg @ref LL_GPIO_AF_11
 644:Drivers/STM32F7xx_HAL_Driver/Inc/stm32f7xx_ll_gpio.h ****   *         @arg @ref LL_GPIO_AF_12
 645:Drivers/STM32F7xx_HAL_Driver/Inc/stm32f7xx_ll_gpio.h ****   *         @arg @ref LL_GPIO_AF_13
 646:Drivers/STM32F7xx_HAL_Driver/Inc/stm32f7xx_ll_gpio.h ****   *         @arg @ref LL_GPIO_AF_14
 647:Drivers/STM32F7xx_HAL_Driver/Inc/stm32f7xx_ll_gpio.h ****   *         @arg @ref LL_GPIO_AF_15
 648:Drivers/STM32F7xx_HAL_Driver/Inc/stm32f7xx_ll_gpio.h ****   * @retval None
ARM GAS  /tmp/cc6sio8H.s 			page 48


 649:Drivers/STM32F7xx_HAL_Driver/Inc/stm32f7xx_ll_gpio.h ****   */
 650:Drivers/STM32F7xx_HAL_Driver/Inc/stm32f7xx_ll_gpio.h **** __STATIC_INLINE void LL_GPIO_SetAFPin_8_15(GPIO_TypeDef *GPIOx, uint32_t Pin, uint32_t Alternate)
 651:Drivers/STM32F7xx_HAL_Driver/Inc/stm32f7xx_ll_gpio.h **** {
 652:Drivers/STM32F7xx_HAL_Driver/Inc/stm32f7xx_ll_gpio.h ****   MODIFY_REG(GPIOx->AFR[1], (GPIO_AFRH_AFRH0 << (POSITION_VAL(Pin >> 8U) * 4U)),
 655              		.loc 4 652 0
 656 00e6 456A     		ldr	r5, [r0, #36]
 657 00e8 1B0A     		lsrs	r3, r3, #8
 658              	.LVL71:
 659              	.LBB180:
 660              	.LBB181:
 661              		.loc 3 531 0
 662              		.syntax unified
 663              	@ 531 "Drivers/CMSIS/Include/cmsis_gcc.h" 1
 664 00ea 93FAA3F6 		rbit r6, r3
 665              	@ 0 "" 2
 666              	.LVL72:
 667              		.thumb
 668              		.syntax unified
 669              	.LBE181:
 670              	.LBE180:
 671              		.loc 4 652 0
 672 00ee B6FA86F6 		clz	r6, r6
 673 00f2 B600     		lsls	r6, r6, #2
 674 00f4 0F27     		movs	r7, #15
 675 00f6 07FA06F6 		lsl	r6, r7, r6
 676 00fa 25EA0605 		bic	r5, r5, r6
 677              	.LVL73:
 678              	.LBB182:
 679              	.LBB183:
 680              		.loc 3 531 0
 681              		.syntax unified
 682              	@ 531 "Drivers/CMSIS/Include/cmsis_gcc.h" 1
 683 00fe 93FAA3F3 		rbit r3, r3
 684              	@ 0 "" 2
 685              	.LVL74:
 686              		.thumb
 687              		.syntax unified
 688              	.LBE183:
 689              	.LBE182:
 690              		.loc 4 652 0
 691 0102 B3FA83F3 		clz	r3, r3
 692 0106 9B00     		lsls	r3, r3, #2
 693 0108 04FA03F3 		lsl	r3, r4, r3
 694 010c 2B43     		orrs	r3, r3, r5
 695 010e 4362     		str	r3, [r0, #36]
 696 0110 95E7     		b	.L29
 697              	.LVL75:
 698              	.L36:
 699              	.LBE179:
 700              	.LBE178:
 271:Drivers/STM32F7xx_HAL_Driver/Src/stm32f7xx_ll_gpio.c ****   }
 272:Drivers/STM32F7xx_HAL_Driver/Src/stm32f7xx_ll_gpio.c **** 
 273:Drivers/STM32F7xx_HAL_Driver/Src/stm32f7xx_ll_gpio.c ****   if ((GPIO_InitStruct->Mode == LL_GPIO_MODE_OUTPUT) || (GPIO_InitStruct->Mode == LL_GPIO_MODE_ALTE
 701              		.loc 1 273 0
 702 0112 4A68     		ldr	r2, [r1, #4]
 703              	.LVL76:
 704 0114 013A     		subs	r2, r2, #1
ARM GAS  /tmp/cc6sio8H.s 			page 49


 705 0116 012A     		cmp	r2, #1
 706 0118 02D9     		bls	.L37
 707              	.LVL77:
 708              	.L33:
 274:Drivers/STM32F7xx_HAL_Driver/Src/stm32f7xx_ll_gpio.c ****   {
 275:Drivers/STM32F7xx_HAL_Driver/Src/stm32f7xx_ll_gpio.c ****     /* Check Output mode parameters */
 276:Drivers/STM32F7xx_HAL_Driver/Src/stm32f7xx_ll_gpio.c ****     assert_param(IS_LL_GPIO_OUTPUT_TYPE(GPIO_InitStruct->OutputType));
 277:Drivers/STM32F7xx_HAL_Driver/Src/stm32f7xx_ll_gpio.c **** 
 278:Drivers/STM32F7xx_HAL_Driver/Src/stm32f7xx_ll_gpio.c ****     /* Output mode configuration*/
 279:Drivers/STM32F7xx_HAL_Driver/Src/stm32f7xx_ll_gpio.c ****     LL_GPIO_SetPinOutputType(GPIOx, GPIO_InitStruct->Pin, GPIO_InitStruct->OutputType);
 280:Drivers/STM32F7xx_HAL_Driver/Src/stm32f7xx_ll_gpio.c **** 
 281:Drivers/STM32F7xx_HAL_Driver/Src/stm32f7xx_ll_gpio.c ****   }
 282:Drivers/STM32F7xx_HAL_Driver/Src/stm32f7xx_ll_gpio.c ****   return (SUCCESS);
 283:Drivers/STM32F7xx_HAL_Driver/Src/stm32f7xx_ll_gpio.c **** }
 709              		.loc 1 283 0
 710 011a 0120     		movs	r0, #1
 711              	.LVL78:
 712 011c F0BC     		pop	{r4, r5, r6, r7}
 713              	.LCFI1:
 714              		.cfi_remember_state
 715              		.cfi_restore 7
 716              		.cfi_restore 6
 717              		.cfi_restore 5
 718              		.cfi_restore 4
 719              		.cfi_def_cfa_offset 0
 720 011e 7047     		bx	lr
 721              	.LVL79:
 722              	.L37:
 723              	.LCFI2:
 724              		.cfi_restore_state
 279:Drivers/STM32F7xx_HAL_Driver/Src/stm32f7xx_ll_gpio.c **** 
 725              		.loc 1 279 0
 726 0120 C968     		ldr	r1, [r1, #12]
 727              	.LVL80:
 728              	.LBB184:
 729              	.LBB185:
 361:Drivers/STM32F7xx_HAL_Driver/Inc/stm32f7xx_ll_gpio.h **** }
 730              		.loc 4 361 0
 731 0122 4268     		ldr	r2, [r0, #4]
 732 0124 22EA0302 		bic	r2, r2, r3
 733 0128 01FB03F3 		mul	r3, r1, r3
 734              	.LVL81:
 735 012c 1343     		orrs	r3, r3, r2
 736 012e 4360     		str	r3, [r0, #4]
 737              	.LVL82:
 738 0130 F3E7     		b	.L33
 739              	.LBE185:
 740              	.LBE184:
 741              		.cfi_endproc
 742              	.LFE194:
 744              		.section	.text.LL_GPIO_StructInit,"ax",%progbits
 745              		.align	1
 746              		.global	LL_GPIO_StructInit
 747              		.syntax unified
 748              		.thumb
 749              		.thumb_func
 750              		.fpu fpv5-d16
ARM GAS  /tmp/cc6sio8H.s 			page 50


 752              	LL_GPIO_StructInit:
 753              	.LFB195:
 284:Drivers/STM32F7xx_HAL_Driver/Src/stm32f7xx_ll_gpio.c **** 
 285:Drivers/STM32F7xx_HAL_Driver/Src/stm32f7xx_ll_gpio.c **** /**
 286:Drivers/STM32F7xx_HAL_Driver/Src/stm32f7xx_ll_gpio.c ****   * @brief Set each @ref LL_GPIO_InitTypeDef field to default value.
 287:Drivers/STM32F7xx_HAL_Driver/Src/stm32f7xx_ll_gpio.c ****   * @param GPIO_InitStruct pointer to a @ref LL_GPIO_InitTypeDef structure
 288:Drivers/STM32F7xx_HAL_Driver/Src/stm32f7xx_ll_gpio.c ****   *                          whose fields will be set to default values.
 289:Drivers/STM32F7xx_HAL_Driver/Src/stm32f7xx_ll_gpio.c ****   * @retval None
 290:Drivers/STM32F7xx_HAL_Driver/Src/stm32f7xx_ll_gpio.c ****   */
 291:Drivers/STM32F7xx_HAL_Driver/Src/stm32f7xx_ll_gpio.c **** 
 292:Drivers/STM32F7xx_HAL_Driver/Src/stm32f7xx_ll_gpio.c **** void LL_GPIO_StructInit(LL_GPIO_InitTypeDef *GPIO_InitStruct)
 293:Drivers/STM32F7xx_HAL_Driver/Src/stm32f7xx_ll_gpio.c **** {
 754              		.loc 1 293 0
 755              		.cfi_startproc
 756              		@ args = 0, pretend = 0, frame = 0
 757              		@ frame_needed = 0, uses_anonymous_args = 0
 758              		@ link register save eliminated.
 759              	.LVL83:
 294:Drivers/STM32F7xx_HAL_Driver/Src/stm32f7xx_ll_gpio.c ****   /* Reset GPIO init structure parameters values */
 295:Drivers/STM32F7xx_HAL_Driver/Src/stm32f7xx_ll_gpio.c ****   GPIO_InitStruct->Pin        = LL_GPIO_PIN_ALL;
 760              		.loc 1 295 0
 761 0000 4FF6FF73 		movw	r3, #65535
 762 0004 0360     		str	r3, [r0]
 296:Drivers/STM32F7xx_HAL_Driver/Src/stm32f7xx_ll_gpio.c ****   GPIO_InitStruct->Mode       = LL_GPIO_MODE_ANALOG;
 763              		.loc 1 296 0
 764 0006 0323     		movs	r3, #3
 765 0008 4360     		str	r3, [r0, #4]
 297:Drivers/STM32F7xx_HAL_Driver/Src/stm32f7xx_ll_gpio.c ****   GPIO_InitStruct->Speed      = LL_GPIO_SPEED_FREQ_LOW;
 766              		.loc 1 297 0
 767 000a 0023     		movs	r3, #0
 768 000c 8360     		str	r3, [r0, #8]
 298:Drivers/STM32F7xx_HAL_Driver/Src/stm32f7xx_ll_gpio.c ****   GPIO_InitStruct->OutputType = LL_GPIO_OUTPUT_PUSHPULL;
 769              		.loc 1 298 0
 770 000e C360     		str	r3, [r0, #12]
 299:Drivers/STM32F7xx_HAL_Driver/Src/stm32f7xx_ll_gpio.c ****   GPIO_InitStruct->Pull       = LL_GPIO_PULL_NO;
 771              		.loc 1 299 0
 772 0010 0361     		str	r3, [r0, #16]
 300:Drivers/STM32F7xx_HAL_Driver/Src/stm32f7xx_ll_gpio.c ****   GPIO_InitStruct->Alternate  = LL_GPIO_AF_0;
 773              		.loc 1 300 0
 774 0012 4361     		str	r3, [r0, #20]
 301:Drivers/STM32F7xx_HAL_Driver/Src/stm32f7xx_ll_gpio.c **** }
 775              		.loc 1 301 0
 776 0014 7047     		bx	lr
 777              		.cfi_endproc
 778              	.LFE195:
 780              		.text
 781              	.Letext0:
 782              		.file 5 "/usr/arm-none-eabi/include/machine/_default_types.h"
 783              		.file 6 "/usr/arm-none-eabi/include/sys/_stdint.h"
 784              		.file 7 "Drivers/CMSIS/Include/core_cm7.h"
 785              		.file 8 "Drivers/CMSIS/Device/ST/STM32F7xx/Include/system_stm32f7xx.h"
 786              		.file 9 "Drivers/CMSIS/Device/ST/STM32F7xx/Include/stm32f767xx.h"
 787              		.file 10 "Drivers/CMSIS/Device/ST/STM32F7xx/Include/stm32f7xx.h"
ARM GAS  /tmp/cc6sio8H.s 			page 51

